

Microchip MPLAB XC8 Assembler V2.32 build 20210201212658 
                                                                                               Thu May 13 15:57:41 2021

Microchip MPLAB XC8 C Compiler v2.32 (Free license) build 20210201212658 Og1 
     1                           	processor	16F74
     2                           	pagewidth 120
     3                           	opt	flic
     4                           	psect	idataBANK0,global,class=CODE,delta=2,noexec
     5                           	psect	strings,global,class=STRING,delta=2,noexec
     6                           	psect	cinit,global,class=CODE,merge=1,delta=2
     7                           	psect	bssBANK0,global,class=BANK0,space=1,delta=1,noexec
     8                           	psect	dataBANK0,global,class=BANK0,space=1,delta=1,noexec
     9                           	psect	clrtext,global,class=CODE,delta=2
    10                           	psect	cstackCOMMON,global,class=COMMON,space=1,delta=1,noexec
    11                           	psect	cstackBANK0,global,class=BANK0,space=1,delta=1,noexec
    12                           	psect	maintext,global,class=CODE,split=1,delta=2
    13                           	psect	text1,local,class=CODE,merge=1,delta=2
    14                           	psect	intentry,global,class=CODE,delta=2
    15                           	psect	text2,local,class=CODE,merge=1,delta=2
    16                           	psect	text3,local,class=CODE,merge=1,delta=2
    17                           	psect	text4,local,class=CODE,merge=1,delta=2,group=1
    18                           	psect	text5,local,class=CODE,merge=1,delta=2,group=1
    19                           	psect	text6,local,class=CODE,merge=1,delta=2,group=1
    20                           	psect	text7,local,class=CODE,merge=1,delta=2,group=1
    21                           	psect	text8,local,class=CODE,merge=1,delta=2,group=1
    22                           	psect	text9,local,class=CODE,merge=1,delta=2,group=1
    23                           	dabs	1,0x7E,2
    24  0000                     
    25                           ; Version 2.20
    26                           ; Generated 12/02/2020 GMT
    27                           ; 
    28                           ; Copyright © 2020, Microchip Technology Inc. and its subsidiaries ("Microchip")
    29                           ; All rights reserved.
    30                           ; 
    31                           ; This software is developed by Microchip Technology Inc. and its subsidiaries ("Microch
      +                          ip").
    32                           ; 
    33                           ; Redistribution and use in source and binary forms, with or without modification, are
    34                           ; permitted provided that the following conditions are met:
    35                           ; 
    36                           ;     1. Redistributions of source code must retain the above copyright notice, this lis
      +                          t of
    37                           ;        conditions and the following disclaimer.
    38                           ; 
    39                           ;     2. Redistributions in binary form must reproduce the above copyright notice, this 
      +                          list
    40                           ;        of conditions and the following disclaimer in the documentation and/or other
    41                           ;        materials provided with the distribution.
    42                           ; 
    43                           ;     3. Microchip's name may not be used to endorse or promote products derived from th
      +                          is
    44                           ;        software without specific prior written permission.
    45                           ; 
    46                           ; THIS SOFTWARE IS PROVIDED BY MICROCHIP "AS IS" AND ANY EXPRESS OR IMPLIED WARRANTIES,
    47                           ; INCLUDING, BUT NOT LIMITED TO, THE IMPLIED WARRANTIES OF MERCHANTABILITY AND FITNESS F
      +                          OR
    48                           ; PURPOSE ARE DISCLAIMED.  IN NO EVENT SHALL MICROCHIP BE LIABLE FOR ANY DIRECT, INDIREC
      +                          T,
    49                           ; INCIDENTAL, SPECIAL, EXEMPLARY, OR CONSEQUENTIAL DAMAGES (INCLUDING BUT NOT LIMITED TO
    50                           ; PROCUREMENT OF SUBSTITUTE GOODS OR SERVICES; LOSS OF USE, DATA OR PROFITS; OR BUSINESS
    51                           ; INTERRUPTION) HOWSOEVER CAUSED AND ON ANY THEORY OF LIABILITY, WHETHER IN CONTRACT, ST
      +                          RICT
    52                           ; LIABILITY, OR TORT (INCLUDING NEGLIGENCE OR OTHERWISE) ARISING IN ANY WAY OUT OF THE U
      +                          SE OF
    53                           ; THIS SOFTWARE, EVEN IF ADVISED OF THE POSSIBILITY OF SUCH DAMAGE.
    54                           ; 
    55                           ; 
    56                           ; Code-generator required, PIC16F74 Definitions
    57                           ; 
    58                           ; SFR Addresses
    59  0000                     	;# 
    60  0001                     	;# 
    61  0002                     	;# 
    62  0003                     	;# 
    63  0004                     	;# 
    64  0005                     	;# 
    65  0006                     	;# 
    66  0007                     	;# 
    67  0008                     	;# 
    68  0009                     	;# 
    69  000A                     	;# 
    70  000B                     	;# 
    71  000C                     	;# 
    72  000D                     	;# 
    73  000E                     	;# 
    74  000E                     	;# 
    75  000F                     	;# 
    76  0010                     	;# 
    77  0011                     	;# 
    78  0012                     	;# 
    79  0013                     	;# 
    80  0014                     	;# 
    81  0015                     	;# 
    82  0015                     	;# 
    83  0016                     	;# 
    84  0017                     	;# 
    85  0018                     	;# 
    86  0019                     	;# 
    87  001A                     	;# 
    88  001B                     	;# 
    89  001B                     	;# 
    90  001C                     	;# 
    91  001D                     	;# 
    92  001E                     	;# 
    93  001F                     	;# 
    94  0081                     	;# 
    95  0085                     	;# 
    96  0086                     	;# 
    97  0087                     	;# 
    98  0088                     	;# 
    99  0089                     	;# 
   100  008C                     	;# 
   101  008D                     	;# 
   102  008E                     	;# 
   103  0092                     	;# 
   104  0093                     	;# 
   105  0094                     	;# 
   106  0098                     	;# 
   107  0099                     	;# 
   108  009F                     	;# 
   109  010C                     	;# 
   110  010D                     	;# 
   111  010E                     	;# 
   112  010F                     	;# 
   113  018C                     	;# 
   114                           
   115 ;; Function _putch is unused but had its address taken
   116  0000                     
   117                           	psect	idataBANK0
   118  0002                     __pidataBANK0:
   119                           
   120                           ;initializer for _counter
   121  0002  3401               	retlw	1
   122  0003  3400               	retlw	0
   123  000E                     _TMR1	set	14
   124  0015                     _CCPR1	set	21
   125  0017                     _CCP1CON	set	23
   126  0080                     _TMR1ON	set	128
   127  0081                     _TMR1CS	set	129
   128  005E                     _PEIE	set	94
   129  005F                     _GIE	set	95
   130  0060                     _TMR1IF	set	96
   131  0062                     _CCP1IF	set	98
   132  0087                     _TRISC	set	135
   133  0460                     _TMR1IE	set	1120
   134  0462                     _CCP1IE	set	1122
   135                           
   136                           	psect	strings
   137  07EE                     __pstrings:
   138  07EE                     stringtab:
   139  07EE                     __stringtab:
   140  07EE                     stringcode:	
   141                           ;	String table - string pointers are 1 byte each
   142                           
   143  07EE                     stringdir:
   144  07EE  3007               	movlw	high stringdir
   145  07EF  008A               	movwf	10
   146  07F0  0804               	movf	4,w
   147  07F1  0A84               	incf	4,f
   148  07F2  0782               	addwf	2,f
   149  07F3                     __stringbase:
   150  07F3  3400               	retlw	0
   151  07F4                     __end_of__stringtab:
   152  07F4                     STR_1:
   153  07F4  3425               	retlw	37	;'%'
   154  07F5  3463               	retlw	99	;'c'
   155  07F6  3400               	retlw	0
   156  07F6                     
   157                           	psect	cinit
   158  0013                     start_initialization:	
   159                           ; #config settings
   160                           
   161  0013                     __initialization:
   162                           
   163                           ; Initialize objects allocated to BANK0
   164  0013  118A  2002  118A   	fcall	__pidataBANK0	;fetch initializer
   165  0016  00F9               	movwf	__pdataBANK0& (0+127)
   166  0017  118A  2003  118A   	fcall	__pidataBANK0+1	;fetch initializer
   167  001A  00FA               	movwf	(__pdataBANK0+1)& (0+127)
   168                           
   169                           ; Clear objects allocated to BANK0
   170  001B  1383               	bcf	3,7	;select IRP bank0
   171  001C  3060               	movlw	low __pbssBANK0
   172  001D  0084               	movwf	4
   173  001E  3079               	movlw	low (__pbssBANK0+25)
   174  001F  118A  27F7  118A   	fcall	clear_ram0
   175  0022                     end_of_initialization:	
   176                           ;End of C runtime variable initialization code
   177                           
   178  0022                     __end_of__initialization:
   179  0022  0183               	clrf	3
   180  0023  158A  2E2B         	ljmp	_main	;jump to C main() function
   181                           
   182                           	psect	bssBANK0
   183  0060                     __pbssBANK0:
   184  0060                     _przysp:
   185  0060                     	ds	4
   186  0064                     _roznica:
   187  0064                     	ds	4
   188  0068                     _Obrot2:
   189  0068                     	ds	4
   190  006C                     _Obrot1:
   191  006C                     	ds	4
   192  0070                     _wynik:
   193  0070                     	ds	9
   194                           
   195                           	psect	dataBANK0
   196  0079                     __pdataBANK0:
   197  0079                     _counter:
   198  0079                     	ds	2
   199                           
   200                           	psect	clrtext
   201  07F7                     clear_ram0:	
   202                           ;	Called with FSR containing the base address, and
   203                           ;	W with the last address+1
   204                           
   205  07F7  0064               	clrwdt	;clear the watchdog before getting into this loop
   206  07F8                     clrloop0:
   207  07F8  0180               	clrf	0	;clear RAM location pointed to by FSR
   208  07F9  0A84               	incf	4,f	;increment pointer
   209  07FA  0604               	xorwf	4,w	;XOR with final address
   210  07FB  1903               	btfsc	3,2	;have we reached the end yet?
   211  07FC  3400               	retlw	0	;all done for this memory range, return
   212  07FD  0604               	xorwf	4,w	;XOR again to restore value
   213  07FE  2FF8               	goto	clrloop0	;do the next byte
   214                           
   215                           	psect	cstackCOMMON
   216  0000                     __pcstackCOMMON:
   217  0000                     ??_policz_przyspieszenie:
   218  0000                     ??_main:	
   219                           ; 1 bytes @ 0x0
   220                           
   221  0000                     ??___flsub:	
   222                           ; 1 bytes @ 0x0
   223                           
   224                           
   225                           	psect	cstackBANK0
   226  0020                     __pcstackBANK0:	
   227                           ; 1 bytes @ 0x0
   228                           
   229  0020                     ?_zero:
   230  0020                     ?_main:	
   231                           ; 1 bytes @ 0x0
   232                           
   233  0020                     ?__Umul8_16:	
   234                           ; 1 bytes @ 0x0
   235                           
   236  0020                     ?___fltol:	
   237                           ; 2 bytes @ 0x0
   238                           
   239  0020                     ?___fladd:	
   240                           ; 4 bytes @ 0x0
   241                           
   242  0020                     ?___xxtofl:	
   243                           ; 4 bytes @ 0x0
   244                           
   245  0020                     __Umul8_16@multiplicand:	
   246                           ; 4 bytes @ 0x0
   247                           
   248  0020                     ___fltol@f1:	
   249                           ; 1 bytes @ 0x0
   250                           
   251  0020                     ___fladd@b:	
   252                           ; 4 bytes @ 0x0
   253                           
   254  0020                     ___xxtofl@val:	
   255                           ; 4 bytes @ 0x0
   256                           
   257                           
   258                           ; 4 bytes @ 0x0
   259  0020                     	ds	2
   260  0022                     ??__Umul8_16:
   261                           
   262                           ; 1 bytes @ 0x2
   263  0022                     	ds	2
   264  0024                     ??___fltol:
   265  0024                     ??___xxtofl:	
   266                           ; 1 bytes @ 0x4
   267                           
   268  0024                     __Umul8_16@product:	
   269                           ; 1 bytes @ 0x4
   270                           
   271  0024                     ___fladd@a:	
   272                           ; 2 bytes @ 0x4
   273                           
   274                           
   275                           ; 4 bytes @ 0x4
   276  0024                     	ds	2
   277  0026                     __Umul8_16@word_mpld:
   278                           
   279                           ; 2 bytes @ 0x6
   280  0026                     	ds	2
   281  0028                     ??___fladd:
   282  0028                     __Umul8_16@multiplier:	
   283                           ; 1 bytes @ 0x8
   284                           
   285  0028                     ___xxtofl@sign:	
   286                           ; 1 bytes @ 0x8
   287                           
   288                           
   289                           ; 1 bytes @ 0x8
   290  0028                     	ds	1
   291  0029                     ?___flmul:
   292  0029                     ___fltol@sign1:	
   293                           ; 4 bytes @ 0x9
   294                           
   295  0029                     ___xxtofl@exp:	
   296                           ; 1 bytes @ 0x9
   297                           
   298  0029                     ___flmul@b:	
   299                           ; 1 bytes @ 0x9
   300                           
   301                           
   302                           ; 4 bytes @ 0x9
   303  0029                     	ds	1
   304  002A                     ___fltol@exp1:
   305  002A                     ___xxtofl@arg:	
   306                           ; 1 bytes @ 0xA
   307                           
   308                           
   309                           ; 4 bytes @ 0xA
   310  002A                     	ds	3
   311  002D                     ___flmul@a:
   312                           
   313                           ; 4 bytes @ 0xD
   314  002D                     	ds	3
   315  0030                     ___fladd@signs:
   316                           
   317                           ; 1 bytes @ 0x10
   318  0030                     	ds	1
   319  0031                     ??___flmul:
   320  0031                     ___fladd@aexp:	
   321                           ; 1 bytes @ 0x11
   322                           
   323                           
   324                           ; 1 bytes @ 0x11
   325  0031                     	ds	1
   326  0032                     ___fladd@bexp:
   327                           
   328                           ; 1 bytes @ 0x12
   329  0032                     	ds	1
   330  0033                     ___fladd@grs:
   331                           
   332                           ; 1 bytes @ 0x13
   333  0033                     	ds	1
   334  0034                     ?___flsub:
   335  0034                     ___flsub@a:	
   336                           ; 4 bytes @ 0x14
   337                           
   338                           
   339                           ; 4 bytes @ 0x14
   340  0034                     	ds	2
   341  0036                     ___flmul@sign:
   342                           
   343                           ; 1 bytes @ 0x16
   344  0036                     	ds	1
   345  0037                     ___flmul@grs:
   346                           
   347                           ; 4 bytes @ 0x17
   348  0037                     	ds	1
   349  0038                     ___flsub@b:
   350                           
   351                           ; 4 bytes @ 0x18
   352  0038                     	ds	3
   353  003B                     ___flmul@aexp:
   354                           
   355                           ; 1 bytes @ 0x1B
   356  003B                     	ds	1
   357  003C                     ___flmul@bexp:
   358                           
   359                           ; 1 bytes @ 0x1C
   360  003C                     	ds	1
   361  003D                     ___flmul@prod:
   362                           
   363                           ; 4 bytes @ 0x1D
   364  003D                     	ds	4
   365  0041                     ___flmul@temp:
   366                           
   367                           ; 2 bytes @ 0x21
   368  0041                     	ds	2
   369  0043                     ?_konwersja_na_bity:
   370  0043                     ?_policz_przyspieszenie:	
   371                           ; 1 bytes @ 0x23
   372                           
   373  0043                     policz_przyspieszenie@t:	
   374                           ; 4 bytes @ 0x23
   375                           
   376  0043                     konwersja_na_bity@wart:	
   377                           ; 4 bytes @ 0x23
   378                           
   379                           
   380                           ; 4 bytes @ 0x23
   381  0043                     	ds	4
   382  0047                     konwersja_na_bity@wynik:
   383  0047                     _policz_przyspieszenie$537:	
   384                           ; 1 bytes @ 0x27
   385                           
   386                           
   387                           ; 4 bytes @ 0x27
   388  0047                     	ds	1
   389  0048                     ??_konwersja_na_bity:
   390                           
   391                           ; 1 bytes @ 0x28
   392  0048                     	ds	2
   393  004A                     konwersja_na_bity@cz_ulamk:
   394                           
   395                           ; 4 bytes @ 0x2A
   396  004A                     	ds	4
   397  004E                     _konwersja_na_bity$90:
   398                           
   399                           ; 2 bytes @ 0x2E
   400  004E                     	ds	2
   401  0050                     konwersja_na_bity@n:
   402                           
   403                           ; 4 bytes @ 0x30
   404  0050                     	ds	4
   405  0054                     konwersja_na_bity@i:
   406                           
   407                           ; 2 bytes @ 0x34
   408  0054                     	ds	2
   409  0056                     konwersja_na_bity@cz_calk:
   410                           
   411                           ; 2 bytes @ 0x36
   412  0056                     	ds	2
   413  0058                     ??_zero:
   414                           
   415                           ; 1 bytes @ 0x38
   416  0058                     	ds	8
   417                           
   418                           	psect	maintext
   419  0E2B                     __pmaintext:	
   420 ;;
   421 ;;Main: autosize = 0, tempsize = 0, incstack = 0, save=0
   422 ;;
   423 ;; *************** function _main *****************
   424 ;; Defined at:
   425 ;;		line 47 in file "main.c"
   426 ;; Parameters:    Size  Location     Type
   427 ;;		None
   428 ;; Auto vars:     Size  Location     Type
   429 ;;		None
   430 ;; Return value:  Size  Location     Type
   431 ;;                  1    wreg      void 
   432 ;; Registers used:
   433 ;;		wreg
   434 ;; Tracked objects:
   435 ;;		On entry : B00/0
   436 ;;		On exit  : 0/0
   437 ;;		Unchanged: 0/0
   438 ;; Data sizes:     COMMON   BANK0   BANK1
   439 ;;      Params:         0       0       0
   440 ;;      Locals:         0       0       0
   441 ;;      Temps:          0       0       0
   442 ;;      Totals:         0       0       0
   443 ;;Total ram usage:        0 bytes
   444 ;; Hardware stack levels required when called: 4
   445 ;; This function calls:
   446 ;;		Nothing
   447 ;; This function is called by:
   448 ;;		Startup code after reset
   449 ;; This function uses a non-reentrant model
   450 ;;
   451                           
   452                           
   453                           ;psect for function _main
   454  0E2B                     _main:
   455  0E2B                     l1674:	
   456                           ;incstack = 0
   457                           ; Regs used in _main: [wreg]
   458                           
   459                           
   460                           ;main.c: 48:     TRISC = 0b00000100;;
   461  0E2B  3004               	movlw	4
   462  0E2C  1683               	bsf	3,5	;RP0=1, select bank1
   463  0E2D  1303               	bcf	3,6	;RP1=0, select bank1
   464  0E2E  0087               	movwf	7	;volatile
   465                           
   466                           ;main.c: 49:     CCP1CON = 0b00000101;;
   467  0E2F  3005               	movlw	5
   468  0E30  1283               	bcf	3,5	;RP0=0, select bank0
   469  0E31  1303               	bcf	3,6	;RP1=0, select bank0
   470  0E32  0097               	movwf	23	;volatile
   471  0E33                     l1676:
   472                           
   473                           ;main.c: 51:     GIE = 1;
   474  0E33  178B               	bsf	11,7	;volatile
   475  0E34                     l1678:
   476                           
   477                           ;main.c: 52:     PEIE = 1;
   478  0E34  170B               	bsf	11,6	;volatile
   479  0E35                     l1680:
   480                           
   481                           ;main.c: 53:     CCP1IE = 1;
   482  0E35  1683               	bsf	3,5	;RP0=1, select bank1
   483  0E36  1303               	bcf	3,6	;RP1=0, select bank1
   484  0E37  150C               	bsf	12,2	;volatile
   485  0E38                     l1682:
   486                           
   487                           ;main.c: 54:     TMR1IE = 1;
   488  0E38  140C               	bsf	12,0	;volatile
   489  0E39                     l1684:
   490                           
   491                           ;main.c: 56:     TMR1CS = 0;
   492  0E39  1283               	bcf	3,5	;RP0=0, select bank0
   493  0E3A  1303               	bcf	3,6	;RP1=0, select bank0
   494  0E3B  1090               	bcf	16,1	;volatile
   495  0E3C                     l1686:
   496                           
   497                           ;main.c: 57:     TMR1ON = 1;
   498  0E3C  1410               	bsf	16,0	;volatile
   499  0E3D                     l56:	
   500                           ;main.c: 58:     while(1);
   501                           
   502  0E3D                     l57:
   503  0E3D  2E3D               	goto	l56
   504  0E3E  118A  2811         	ljmp	start
   505  0E40                     __end_of_main:
   506                           
   507                           	psect	text1
   508  05FC                     __ptext1:	
   509 ;; *************** function _zero *****************
   510 ;; Defined at:
   511 ;;		line 20 in file "main.c"
   512 ;; Parameters:    Size  Location     Type
   513 ;;		None
   514 ;; Auto vars:     Size  Location     Type
   515 ;;		None
   516 ;; Return value:  Size  Location     Type
   517 ;;                  1    wreg      void 
   518 ;; Registers used:
   519 ;;		wreg, fsr0l, fsr0h, status,2, status,0, btemp+1, pclath, cstack
   520 ;; Tracked objects:
   521 ;;		On entry : 0/0
   522 ;;		On exit  : 0/0
   523 ;;		Unchanged: 0/0
   524 ;; Data sizes:     COMMON   BANK0   BANK1
   525 ;;      Params:         0       0       0
   526 ;;      Locals:         0       0       0
   527 ;;      Temps:          0       8       0
   528 ;;      Totals:         0       8       0
   529 ;;Total ram usage:        8 bytes
   530 ;; Hardware stack levels used: 1
   531 ;; Hardware stack levels required when called: 3
   532 ;; This function calls:
   533 ;;		___flmul
   534 ;;		___xxtofl
   535 ;;		_konwersja_na_bity
   536 ;;		_policz_przyspieszenie
   537 ;; This function is called by:
   538 ;;		Interrupt level 1
   539 ;; This function uses a non-reentrant model
   540 ;;
   541                           
   542                           
   543                           ;psect for function _zero
   544  05FC                     _zero:
   545  05FC                     i1l1634:
   546                           
   547                           ;main.c: 21:     if(CCP1IF == 1 && CCP1IE == 1){
   548  05FC  1D0C               	btfss	12,2	;volatile
   549  05FD  2DFF               	goto	u234_21
   550  05FE  2E00               	goto	u234_20
   551  05FF                     u234_21:
   552  05FF  2EC9               	goto	i1l1664
   553  0600                     u234_20:
   554  0600                     i1l1636:
   555  0600  1683               	bsf	3,5	;RP0=1, select bank1
   556  0601  1303               	bcf	3,6	;RP1=0, select bank1
   557  0602  1D0C               	btfss	12,2	;volatile
   558  0603  2E05               	goto	u235_21
   559  0604  2E06               	goto	u235_20
   560  0605                     u235_21:
   561  0605  2EC9               	goto	i1l1664
   562  0606                     u235_20:
   563  0606                     i1l1638:
   564                           
   565                           ;main.c: 22:         if(counter == 1)
   566  0606  1283               	bcf	3,5	;RP0=0, select bank0
   567  0607  1303               	bcf	3,6	;RP1=0, select bank0
   568  0608  0379               	decf	_counter,w
   569  0609  047A               	iorwf	_counter+1,w
   570  060A  1D03               	btfss	3,2
   571  060B  2E0D               	goto	u236_21
   572  060C  2E0E               	goto	u236_20
   573  060D                     u236_21:
   574  060D  2E15               	goto	i1l1642
   575  060E                     u236_20:
   576  060E                     i1l1640:
   577                           
   578                           ;main.c: 23:             Obrot1 = (long) CCPR1;
   579  060E  0815               	movf	21,w	;volatile
   580  060F  00EC               	movwf	_Obrot1
   581  0610  0816               	movf	22,w	;volatile
   582  0611  00ED               	movwf	_Obrot1+1
   583  0612  01EE               	clrf	_Obrot1+2
   584  0613  01EF               	clrf	_Obrot1+3
   585  0614  2E22               	goto	i1l47
   586  0615                     i1l1642:
   587  0615  3002               	movlw	2
   588  0616  0679               	xorwf	_counter,w
   589  0617  047A               	iorwf	_counter+1,w
   590  0618  1D03               	btfss	3,2
   591  0619  2E1B               	goto	u237_21
   592  061A  2E1C               	goto	u237_20
   593  061B                     u237_21:
   594  061B  2E22               	goto	i1l47
   595  061C                     u237_20:
   596  061C                     i1l1644:
   597                           
   598                           ;main.c: 25:             Obrot2 = (long) CCPR1;
   599  061C  0815               	movf	21,w	;volatile
   600  061D  00E8               	movwf	_Obrot2
   601  061E  0816               	movf	22,w	;volatile
   602  061F  00E9               	movwf	_Obrot2+1
   603  0620  01EA               	clrf	_Obrot2+2
   604  0621  01EB               	clrf	_Obrot2+3
   605  0622                     i1l47:
   606                           
   607                           ;main.c: 26:         counter++;
   608  0622  3001               	movlw	1
   609  0623  07F9               	addwf	_counter,f
   610  0624  1803               	skipnc
   611  0625  0AFA               	incf	_counter+1,f
   612  0626  3000               	movlw	0
   613  0627  07FA               	addwf	_counter+1,f
   614  0628                     i1l1646:
   615                           
   616                           ;main.c: 27:         if(counter == 3){
   617  0628  3003               	movlw	3
   618  0629  0679               	xorwf	_counter,w
   619  062A  047A               	iorwf	_counter+1,w
   620  062B  1D03               	btfss	3,2
   621  062C  2E2E               	goto	u238_21
   622  062D  2E2F               	goto	u238_20
   623  062E                     u238_21:
   624  062E  2EC8               	goto	i1l1662
   625  062F                     u238_20:
   626  062F                     i1l1648:
   627                           
   628                           ;main.c: 28:             roznica = (double)Obrot2 - (double)Obrot1;
   629  062F  0868               	movf	_Obrot2,w
   630  0630  00D8               	movwf	??_zero
   631  0631  0869               	movf	_Obrot2+1,w
   632  0632  00D9               	movwf	??_zero+1
   633  0633  086A               	movf	_Obrot2+2,w
   634  0634  00DA               	movwf	??_zero+2
   635  0635  086B               	movf	_Obrot2+3,w
   636  0636  00DB               	movwf	??_zero+3
   637  0637  086C               	movf	_Obrot1,w
   638  0638  02D8               	subwf	??_zero,f
   639  0639  086D               	movf	_Obrot1+1,w
   640  063A  1C03               	skipc
   641  063B  0F6D               	incfsz	_Obrot1+1,w
   642  063C  2E3E               	goto	u239_21
   643  063D  2E3F               	goto	u239_22
   644  063E                     u239_21:
   645  063E  02D9               	subwf	??_zero+1,f
   646  063F                     u239_22:
   647  063F  086E               	movf	_Obrot1+2,w
   648  0640  1C03               	skipc
   649  0641  0F6E               	incfsz	_Obrot1+2,w
   650  0642  2E44               	goto	u239_23
   651  0643  2E45               	goto	u239_24
   652  0644                     u239_23:
   653  0644  02DA               	subwf	??_zero+2,f
   654  0645                     u239_24:
   655  0645  086F               	movf	_Obrot1+3,w
   656  0646  1C03               	skipc
   657  0647  0F6F               	incfsz	_Obrot1+3,w
   658  0648  2E4A               	goto	u239_25
   659  0649  2E4B               	goto	u239_26
   660  064A                     u239_25:
   661  064A  02DB               	subwf	??_zero+3,f
   662  064B                     u239_26:
   663  064B  085B               	movf	??_zero+3,w
   664  064C  00A3               	movwf	___xxtofl@val+3
   665  064D  085A               	movf	??_zero+2,w
   666  064E  00A2               	movwf	___xxtofl@val+2
   667  064F  0859               	movf	??_zero+1,w
   668  0650  00A1               	movwf	___xxtofl@val+1
   669  0651  0858               	movf	??_zero,w
   670  0652  00A0               	movwf	___xxtofl@val
   671  0653  3001               	movlw	1
   672  0654  158A  2744  118A   	fcall	___xxtofl
   673  0657  1283               	bcf	3,5	;RP0=0, select bank0
   674  0658  1303               	bcf	3,6	;RP1=0, select bank0
   675  0659  0823               	movf	?___xxtofl+3,w
   676  065A  00E7               	movwf	_roznica+3
   677  065B  0822               	movf	?___xxtofl+2,w
   678  065C  00E6               	movwf	_roznica+2
   679  065D  0821               	movf	?___xxtofl+1,w
   680  065E  00E5               	movwf	_roznica+1
   681  065F  0820               	movf	?___xxtofl,w
   682  0660  00E4               	movwf	_roznica
   683  0661                     i1l1650:
   684                           
   685                           ;main.c: 29:             roznica *= 0.0000002;;
   686  0661  3034               	movlw	52
   687  0662  00AC               	movwf	___flmul@b+3
   688  0663  3056               	movlw	86
   689  0664  00AB               	movwf	___flmul@b+2
   690  0665  30BF               	movlw	191
   691  0666  00AA               	movwf	___flmul@b+1
   692  0667  3095               	movlw	149
   693  0668  00A9               	movwf	___flmul@b
   694  0669  0867               	movf	_roznica+3,w
   695  066A  00B0               	movwf	___flmul@a+3
   696  066B  0866               	movf	_roznica+2,w
   697  066C  00AF               	movwf	___flmul@a+2
   698  066D  0865               	movf	_roznica+1,w
   699  066E  00AE               	movwf	___flmul@a+1
   700  066F  0864               	movf	_roznica,w
   701  0670  00AD               	movwf	___flmul@a
   702  0671  118A  2025  118A   	fcall	___flmul
   703  0674  1283               	bcf	3,5	;RP0=0, select bank0
   704  0675  1303               	bcf	3,6	;RP1=0, select bank0
   705  0676  082C               	movf	?___flmul+3,w
   706  0677  00E7               	movwf	_roznica+3
   707  0678  082B               	movf	?___flmul+2,w
   708  0679  00E6               	movwf	_roznica+2
   709  067A  082A               	movf	?___flmul+1,w
   710  067B  00E5               	movwf	_roznica+1
   711  067C  0829               	movf	?___flmul,w
   712  067D  00E4               	movwf	_roznica
   713  067E                     i1l1652:
   714                           
   715                           ;main.c: 30:             przysp = policz_przyspieszenie(roznica);
   716  067E  0867               	movf	_roznica+3,w
   717  067F  00C6               	movwf	policz_przyspieszenie@t+3
   718  0680  0866               	movf	_roznica+2,w
   719  0681  00C5               	movwf	policz_przyspieszenie@t+2
   720  0682  0865               	movf	_roznica+1,w
   721  0683  00C4               	movwf	policz_przyspieszenie@t+1
   722  0684  0864               	movf	_roznica,w
   723  0685  00C3               	movwf	policz_przyspieszenie@t
   724  0686  158A  268B  118A   	fcall	_policz_przyspieszenie
   725  0689  1283               	bcf	3,5	;RP0=0, select bank0
   726  068A  1303               	bcf	3,6	;RP1=0, select bank0
   727  068B  0846               	movf	?_policz_przyspieszenie+3,w
   728  068C  00E3               	movwf	_przysp+3
   729  068D  0845               	movf	?_policz_przyspieszenie+2,w
   730  068E  00E2               	movwf	_przysp+2
   731  068F  0844               	movf	?_policz_przyspieszenie+1,w
   732  0690  00E1               	movwf	_przysp+1
   733  0691  0843               	movf	?_policz_przyspieszenie,w
   734  0692  00E0               	movwf	_przysp
   735  0693                     i1l1654:
   736                           
   737                           ;main.c: 31:             konwersja_na_bity(przysp,wynik);
   738  0693  0863               	movf	_przysp+3,w
   739  0694  00C6               	movwf	konwersja_na_bity@wart+3
   740  0695  0862               	movf	_przysp+2,w
   741  0696  00C5               	movwf	konwersja_na_bity@wart+2
   742  0697  0861               	movf	_przysp+1,w
   743  0698  00C4               	movwf	konwersja_na_bity@wart+1
   744  0699  0860               	movf	_przysp,w
   745  069A  00C3               	movwf	konwersja_na_bity@wart
   746  069B  3070               	movlw	(low (_wynik| 0))& (0+255)
   747  069C  00D8               	movwf	??_zero
   748  069D  0858               	movf	??_zero,w
   749  069E  00C7               	movwf	konwersja_na_bity@wynik
   750  069F  118A  2709  118A   	fcall	_konwersja_na_bity
   751  06A2                     i1l1656:
   752                           
   753                           ;main.c: 32:             counter = 1;
   754  06A2  3001               	movlw	1
   755  06A3  1283               	bcf	3,5	;RP0=0, select bank0
   756  06A4  1303               	bcf	3,6	;RP1=0, select bank0
   757  06A5  00F9               	movwf	_counter
   758  06A6  3000               	movlw	0
   759  06A7  00FA               	movwf	_counter+1
   760  06A8                     i1l1658:
   761                           
   762                           ;main.c: 33:             Obrot1 = Obrot2 = 0;
   763  06A8  3000               	movlw	0
   764  06A9  00EB               	movwf	_Obrot2+3
   765  06AA  3000               	movlw	0
   766  06AB  00EA               	movwf	_Obrot2+2
   767  06AC  3000               	movlw	0
   768  06AD  00E9               	movwf	_Obrot2+1
   769  06AE  3000               	movlw	0
   770  06AF  00E8               	movwf	_Obrot2
   771  06B0  086B               	movf	_Obrot2+3,w
   772  06B1  00EF               	movwf	_Obrot1+3
   773  06B2  086A               	movf	_Obrot2+2,w
   774  06B3  00EE               	movwf	_Obrot1+2
   775  06B4  0869               	movf	_Obrot2+1,w
   776  06B5  00ED               	movwf	_Obrot1+1
   777  06B6  0868               	movf	_Obrot2,w
   778  06B7  00EC               	movwf	_Obrot1
   779  06B8                     i1l1660:
   780                           
   781                           ;main.c: 34:             roznica = przysp = 0.0;
   782  06B8  3000               	movlw	0
   783  06B9  00E3               	movwf	_przysp+3
   784  06BA  3000               	movlw	0
   785  06BB  00E2               	movwf	_przysp+2
   786  06BC  3000               	movlw	0
   787  06BD  00E1               	movwf	_przysp+1
   788  06BE  3000               	movlw	0
   789  06BF  00E0               	movwf	_przysp
   790  06C0  0863               	movf	_przysp+3,w
   791  06C1  00E7               	movwf	_roznica+3
   792  06C2  0862               	movf	_przysp+2,w
   793  06C3  00E6               	movwf	_roznica+2
   794  06C4  0861               	movf	_przysp+1,w
   795  06C5  00E5               	movwf	_roznica+1
   796  06C6  0860               	movf	_przysp,w
   797  06C7  00E4               	movwf	_roznica
   798  06C8                     i1l1662:
   799                           
   800                           ;main.c: 36:         CCP1IF = 0;
   801  06C8  110C               	bcf	12,2	;volatile
   802  06C9                     i1l1664:
   803                           
   804                           ;main.c: 38:     if(TMR1IF == 1 && TMR1IE == 1){
   805  06C9  1283               	bcf	3,5	;RP0=0, select bank0
   806  06CA  1C0C               	btfss	12,0	;volatile
   807  06CB  2ECD               	goto	u240_21
   808  06CC  2ECE               	goto	u240_20
   809  06CD                     u240_21:
   810  06CD  2EFD               	goto	i1l51
   811  06CE                     u240_20:
   812  06CE                     i1l1666:
   813  06CE  1683               	bsf	3,5	;RP0=1, select bank1
   814  06CF  1303               	bcf	3,6	;RP1=0, select bank1
   815  06D0  1C0C               	btfss	12,0	;volatile
   816  06D1  2ED3               	goto	u241_21
   817  06D2  2ED4               	goto	u241_20
   818  06D3                     u241_21:
   819  06D3  2EFD               	goto	i1l51
   820  06D4                     u241_20:
   821  06D4                     i1l1668:
   822                           
   823                           ;main.c: 39:         counter = 1;
   824  06D4  3001               	movlw	1
   825  06D5  1283               	bcf	3,5	;RP0=0, select bank0
   826  06D6  1303               	bcf	3,6	;RP1=0, select bank0
   827  06D7  00F9               	movwf	_counter
   828  06D8  3000               	movlw	0
   829  06D9  00FA               	movwf	_counter+1
   830                           
   831                           ;main.c: 40:         Obrot1 = Obrot2 = 0;
   832  06DA  3000               	movlw	0
   833  06DB  00EB               	movwf	_Obrot2+3
   834  06DC  3000               	movlw	0
   835  06DD  00EA               	movwf	_Obrot2+2
   836  06DE  3000               	movlw	0
   837  06DF  00E9               	movwf	_Obrot2+1
   838  06E0  3000               	movlw	0
   839  06E1  00E8               	movwf	_Obrot2
   840  06E2  086B               	movf	_Obrot2+3,w
   841  06E3  00EF               	movwf	_Obrot1+3
   842  06E4  086A               	movf	_Obrot2+2,w
   843  06E5  00EE               	movwf	_Obrot1+2
   844  06E6  0869               	movf	_Obrot2+1,w
   845  06E7  00ED               	movwf	_Obrot1+1
   846  06E8  0868               	movf	_Obrot2,w
   847  06E9  00EC               	movwf	_Obrot1
   848                           
   849                           ;main.c: 41:         roznica = przysp = 0.0;
   850  06EA  3000               	movlw	0
   851  06EB  00E3               	movwf	_przysp+3
   852  06EC  3000               	movlw	0
   853  06ED  00E2               	movwf	_przysp+2
   854  06EE  3000               	movlw	0
   855  06EF  00E1               	movwf	_przysp+1
   856  06F0  3000               	movlw	0
   857  06F1  00E0               	movwf	_przysp
   858  06F2  0863               	movf	_przysp+3,w
   859  06F3  00E7               	movwf	_roznica+3
   860  06F4  0862               	movf	_przysp+2,w
   861  06F5  00E6               	movwf	_roznica+2
   862  06F6  0861               	movf	_przysp+1,w
   863  06F7  00E5               	movwf	_roznica+1
   864  06F8  0860               	movf	_przysp,w
   865  06F9  00E4               	movwf	_roznica
   866  06FA                     i1l1670:
   867                           
   868                           ;main.c: 42:         TMR1 = 0;
   869  06FA  018E               	clrf	14	;volatile
   870  06FB  018F               	clrf	15	;volatile
   871  06FC                     i1l1672:
   872                           
   873                           ;main.c: 43:         TMR1IF = 0;
   874  06FC  100C               	bcf	12,0	;volatile
   875  06FD                     i1l51:
   876  06FD  1283               	bcf	3,5	;RP0=0, select bank0
   877  06FE  085F               	movf	??_zero+7,w
   878  06FF  00FF               	movwf	btemp+1
   879  0700  085E               	movf	??_zero+6,w
   880  0701  008A               	movwf	10
   881  0702  085D               	movf	??_zero+5,w
   882  0703  0084               	movwf	4
   883  0704  0E5C               	swapf	??_zero+4,w
   884  0705  0083               	movwf	3
   885  0706  0EFE               	swapf	btemp,f
   886  0707  0E7E               	swapf	btemp,w
   887  0708  0009               	retfie
   888  0709                     __end_of_zero:
   889                           
   890                           	psect	intentry
   891  0004                     __pintentry:	
   892                           ;incstack = 0
   893                           ; Regs used in _zero: [wreg-fsr0h+status,2+status,0+btemp+1+pclath+cstack]
   894                           
   895  0004                     interrupt_function:
   896  007E                     saved_w	set	btemp
   897  0004  00FE               	movwf	btemp
   898  0005  0E03               	swapf	3,w
   899  0006  1283               	bcf	3,5	;RP0=0, select bank0
   900  0007  1303               	bcf	3,6	;RP1=0, select bank0
   901  0008  00DC               	movwf	??_zero+4
   902  0009  0804               	movf	4,w
   903  000A  00DD               	movwf	??_zero+5
   904  000B  080A               	movf	10,w
   905  000C  00DE               	movwf	??_zero+6
   906  000D  087F               	movf	btemp+1,w
   907  000E  00DF               	movwf	??_zero+7
   908  000F  118A  2DFC         	ljmp	_zero
   909                           
   910                           	psect	text2
   911  0E8B                     __ptext2:	
   912 ;; *************** function _policz_przyspieszenie *****************
   913 ;; Defined at:
   914 ;;		line 3 in file "Przyspieszenie.c"
   915 ;; Parameters:    Size  Location     Type
   916 ;;  t               4   35[BANK0 ] void 
   917 ;; Auto vars:     Size  Location     Type
   918 ;;		None
   919 ;; Return value:  Size  Location     Type
   920 ;;                  4   35[BANK0 ] void 
   921 ;; Registers used:
   922 ;;		wreg, status,2, status,0, btemp+1, pclath, cstack
   923 ;; Tracked objects:
   924 ;;		On entry : 0/0
   925 ;;		On exit  : 0/0
   926 ;;		Unchanged: 0/0
   927 ;; Data sizes:     COMMON   BANK0   BANK1
   928 ;;      Params:         0       4       0
   929 ;;      Locals:         0       4       0
   930 ;;      Temps:          0       0       0
   931 ;;      Totals:         0       8       0
   932 ;;Total ram usage:        8 bytes
   933 ;; Hardware stack levels used: 1
   934 ;; Hardware stack levels required when called: 2
   935 ;; This function calls:
   936 ;;		___flmul
   937 ;; This function is called by:
   938 ;;		_zero
   939 ;; This function uses a non-reentrant model
   940 ;;
   941                           
   942                           
   943                           ;psect for function _policz_przyspieszenie
   944  0E8B                     _policz_przyspieszenie:
   945  0E8B                     i1l1596:	
   946                           ;incstack = 0
   947                           ; Regs used in _policz_przyspieszenie: [wreg+status,2+status,0+btemp+1+pclath+cstack]
   948                           
   949                           
   950                           ;Przyspieszenie.c: 3:  double policz_przyspieszenie(double t);Przyspieszenie.c: 4: {;Prz
      +                          yspieszenie.c: 5:     return t * 2 * 3.14159;;
   951  0E8B  3040               	movlw	64
   952  0E8C  1283               	bcf	3,5	;RP0=0, select bank0
   953  0E8D  1303               	bcf	3,6	;RP1=0, select bank0
   954  0E8E  00AC               	movwf	___flmul@b+3
   955  0E8F  3000               	movlw	0
   956  0E90  00AB               	movwf	___flmul@b+2
   957  0E91  3000               	movlw	0
   958  0E92  00AA               	movwf	___flmul@b+1
   959  0E93  3000               	movlw	0
   960  0E94  00A9               	movwf	___flmul@b
   961  0E95  0846               	movf	policz_przyspieszenie@t+3,w
   962  0E96  00B0               	movwf	___flmul@a+3
   963  0E97  0845               	movf	policz_przyspieszenie@t+2,w
   964  0E98  00AF               	movwf	___flmul@a+2
   965  0E99  0844               	movf	policz_przyspieszenie@t+1,w
   966  0E9A  00AE               	movwf	___flmul@a+1
   967  0E9B  0843               	movf	policz_przyspieszenie@t,w
   968  0E9C  00AD               	movwf	___flmul@a
   969  0E9D  118A  2025  158A   	fcall	___flmul
   970  0EA0  1283               	bcf	3,5	;RP0=0, select bank0
   971  0EA1  1303               	bcf	3,6	;RP1=0, select bank0
   972  0EA2  082C               	movf	?___flmul+3,w
   973  0EA3  00CA               	movwf	_policz_przyspieszenie$537+3
   974  0EA4  082B               	movf	?___flmul+2,w
   975  0EA5  00C9               	movwf	_policz_przyspieszenie$537+2
   976  0EA6  082A               	movf	?___flmul+1,w
   977  0EA7  00C8               	movwf	_policz_przyspieszenie$537+1
   978  0EA8  0829               	movf	?___flmul,w
   979  0EA9  00C7               	movwf	_policz_przyspieszenie$537
   980                           
   981                           ;Przyspieszenie.c: 3:  double policz_przyspieszenie(double t);Przyspieszenie.c: 4: {;Prz
      +                          yspieszenie.c: 5:     return t * 2 * 3.14159;;
   982  0EAA  3040               	movlw	64
   983  0EAB  00AC               	movwf	___flmul@b+3
   984  0EAC  3049               	movlw	73
   985  0EAD  00AB               	movwf	___flmul@b+2
   986  0EAE  300F               	movlw	15
   987  0EAF  00AA               	movwf	___flmul@b+1
   988  0EB0  30D0               	movlw	208
   989  0EB1  00A9               	movwf	___flmul@b
   990  0EB2  084A               	movf	_policz_przyspieszenie$537+3,w
   991  0EB3  00B0               	movwf	___flmul@a+3
   992  0EB4  0849               	movf	_policz_przyspieszenie$537+2,w
   993  0EB5  00AF               	movwf	___flmul@a+2
   994  0EB6  0848               	movf	_policz_przyspieszenie$537+1,w
   995  0EB7  00AE               	movwf	___flmul@a+1
   996  0EB8  0847               	movf	_policz_przyspieszenie$537,w
   997  0EB9  00AD               	movwf	___flmul@a
   998  0EBA  118A  2025  158A   	fcall	___flmul
   999  0EBD  1283               	bcf	3,5	;RP0=0, select bank0
  1000  0EBE  1303               	bcf	3,6	;RP1=0, select bank0
  1001  0EBF  082C               	movf	?___flmul+3,w
  1002  0EC0  00C6               	movwf	?_policz_przyspieszenie+3
  1003  0EC1  082B               	movf	?___flmul+2,w
  1004  0EC2  00C5               	movwf	?_policz_przyspieszenie+2
  1005  0EC3  082A               	movf	?___flmul+1,w
  1006  0EC4  00C4               	movwf	?_policz_przyspieszenie+1
  1007  0EC5  0829               	movf	?___flmul,w
  1008  0EC6  00C3               	movwf	?_policz_przyspieszenie
  1009  0EC7                     i1l68:
  1010  0EC7  0008               	return
  1011  0EC8                     __end_of_policz_przyspieszenie:
  1012                           
  1013                           	psect	text3
  1014  0709                     __ptext3:	
  1015 ;; *************** function _konwersja_na_bity *****************
  1016 ;; Defined at:
  1017 ;;		line 15 in file "Przyspieszenie.c"
  1018 ;; Parameters:    Size  Location     Type
  1019 ;;  wart            4   35[BANK0 ] void 
  1020 ;;  wynik           1   39[BANK0 ] PTR unsigned char 
  1021 ;;		 -> wynik(9), 
  1022 ;; Auto vars:     Size  Location     Type
  1023 ;;  i               2   52[BANK0 ] int 
  1024 ;;  n               4   48[BANK0 ] int 
  1025 ;;  cz_ulamk        4   42[BANK0 ] int 
  1026 ;;  cz_calk         2   54[BANK0 ] int 
  1027 ;; Return value:  Size  Location     Type
  1028 ;;                  1    wreg      void 
  1029 ;; Registers used:
  1030 ;;		wreg, fsr0l, fsr0h, status,2, status,0, btemp+1, pclath, cstack
  1031 ;; Tracked objects:
  1032 ;;		On entry : 0/0
  1033 ;;		On exit  : 0/0
  1034 ;;		Unchanged: 0/0
  1035 ;; Data sizes:     COMMON   BANK0   BANK1
  1036 ;;      Params:         0       5       0
  1037 ;;      Locals:         0      14       0
  1038 ;;      Temps:          0       2       0
  1039 ;;      Totals:         0      21       0
  1040 ;;Total ram usage:       21 bytes
  1041 ;; Hardware stack levels used: 1
  1042 ;; Hardware stack levels required when called: 2
  1043 ;; This function calls:
  1044 ;;		___flmul
  1045 ;;		___flsub
  1046 ;;		___fltol
  1047 ;;		___xxtofl
  1048 ;; This function is called by:
  1049 ;;		_zero
  1050 ;; This function uses a non-reentrant model
  1051 ;;
  1052                           
  1053                           
  1054                           ;psect for function _konwersja_na_bity
  1055  0709                     _konwersja_na_bity:
  1056  0709                     i1l1600:	
  1057                           ;incstack = 0
  1058                           ; Regs used in _konwersja_na_bity: [wreg-fsr0h+status,2+status,0+btemp+1+pclath+cstack]
  1059                           
  1060                           
  1061                           ;Przyspieszenie.c: 15: void konwersja_na_bity(double wart, char wynik[]);Przyspieszenie.
      +                          c: 16: {;Przyspieszenie.c: 17:     int cz_calk = (int)wart;
  1062  0709  1283               	bcf	3,5	;RP0=0, select bank0
  1063  070A  1303               	bcf	3,6	;RP1=0, select bank0
  1064  070B  0846               	movf	konwersja_na_bity@wart+3,w
  1065  070C  00A3               	movwf	___fltol@f1+3
  1066  070D  0845               	movf	konwersja_na_bity@wart+2,w
  1067  070E  00A2               	movwf	___fltol@f1+2
  1068  070F  0844               	movf	konwersja_na_bity@wart+1,w
  1069  0710  00A1               	movwf	___fltol@f1+1
  1070  0711  0843               	movf	konwersja_na_bity@wart,w
  1071  0712  00A0               	movwf	___fltol@f1
  1072  0713  158A  26C8  118A   	fcall	___fltol
  1073  0716  1283               	bcf	3,5	;RP0=0, select bank0
  1074  0717  1303               	bcf	3,6	;RP1=0, select bank0
  1075  0718  0821               	movf	?___fltol+1,w
  1076  0719  00D7               	movwf	konwersja_na_bity@cz_calk+1
  1077  071A  0820               	movf	?___fltol,w
  1078  071B  00D6               	movwf	konwersja_na_bity@cz_calk
  1079  071C                     i1l1602:
  1080                           
  1081                           ;Przyspieszenie.c: 18:     double cz_ulamk = wart - cz_calk;
  1082  071C  0856               	movf	konwersja_na_bity@cz_calk,w
  1083  071D  00A0               	movwf	___xxtofl@val
  1084  071E  0857               	movf	konwersja_na_bity@cz_calk+1,w
  1085  071F  00A1               	movwf	___xxtofl@val+1
  1086  0720  3000               	movlw	0
  1087  0721  1BA1               	btfsc	___xxtofl@val+1,7
  1088  0722  30FF               	movlw	255
  1089  0723  00A2               	movwf	___xxtofl@val+2
  1090  0724  00A3               	movwf	___xxtofl@val+3
  1091  0725  3001               	movlw	1
  1092  0726  158A  2744  118A   	fcall	___xxtofl
  1093  0729  1283               	bcf	3,5	;RP0=0, select bank0
  1094  072A  1303               	bcf	3,6	;RP1=0, select bank0
  1095  072B  0823               	movf	?___xxtofl+3,w
  1096  072C  00B7               	movwf	___flsub@a+3
  1097  072D  0822               	movf	?___xxtofl+2,w
  1098  072E  00B6               	movwf	___flsub@a+2
  1099  072F  0821               	movf	?___xxtofl+1,w
  1100  0730  00B5               	movwf	___flsub@a+1
  1101  0731  0820               	movf	?___xxtofl,w
  1102  0732  00B4               	movwf	___flsub@a
  1103  0733  0846               	movf	konwersja_na_bity@wart+3,w
  1104  0734  00BB               	movwf	___flsub@b+3
  1105  0735  0845               	movf	konwersja_na_bity@wart+2,w
  1106  0736  00BA               	movwf	___flsub@b+2
  1107  0737  0844               	movf	konwersja_na_bity@wart+1,w
  1108  0738  00B9               	movwf	___flsub@b+1
  1109  0739  0843               	movf	konwersja_na_bity@wart,w
  1110  073A  00B8               	movwf	___flsub@b
  1111  073B  158A  2640  118A   	fcall	___flsub
  1112  073E  1283               	bcf	3,5	;RP0=0, select bank0
  1113  073F  1303               	bcf	3,6	;RP1=0, select bank0
  1114  0740  0837               	movf	?___flsub+3,w
  1115  0741  00CD               	movwf	konwersja_na_bity@cz_ulamk+3
  1116  0742  0836               	movf	?___flsub+2,w
  1117  0743  00CC               	movwf	konwersja_na_bity@cz_ulamk+2
  1118  0744  0835               	movf	?___flsub+1,w
  1119  0745  00CB               	movwf	konwersja_na_bity@cz_ulamk+1
  1120  0746  0834               	movf	?___flsub,w
  1121  0747  00CA               	movwf	konwersja_na_bity@cz_ulamk
  1122  0748                     i1l1604:
  1123  0748                     i1l1606:
  1124                           
  1125                           ;Przyspieszenie.c: 21:     wynik[0] = (char)(cz_calk + '0');
  1126  0748  0856               	movf	konwersja_na_bity@cz_calk,w
  1127  0749  3E30               	addlw	48
  1128  074A  00C8               	movwf	??_konwersja_na_bity
  1129  074B  0847               	movf	konwersja_na_bity@wynik,w
  1130  074C  0084               	movwf	4
  1131  074D  0848               	movf	??_konwersja_na_bity,w
  1132  074E  1383               	bcf	3,7	;select IRP bank0
  1133  074F  0080               	movwf	0
  1134  0750                     i1l1608:
  1135                           
  1136                           ;Przyspieszenie.c: 22:     wynik[1] = '.';
  1137  0750  302E               	movlw	46
  1138  0751  00C8               	movwf	??_konwersja_na_bity
  1139  0752  0A47               	incf	konwersja_na_bity@wynik,w
  1140  0753  0084               	movwf	4
  1141  0754  0848               	movf	??_konwersja_na_bity,w
  1142  0755  0080               	movwf	0
  1143  0756                     i1l1610:
  1144                           
  1145                           ;Przyspieszenie.c: 24:     for(int i = 2; i < 9; i++)
  1146  0756  3002               	movlw	2
  1147  0757  00D4               	movwf	konwersja_na_bity@i
  1148  0758  3000               	movlw	0
  1149  0759  00D5               	movwf	konwersja_na_bity@i+1
  1150  075A                     i1l1616:
  1151                           
  1152                           ;Przyspieszenie.c: 25:     {;Przyspieszenie.c: 26:         n = cz_ulamk * 2;
  1153  075A  3040               	movlw	64
  1154  075B  1283               	bcf	3,5	;RP0=0, select bank0
  1155  075C  1303               	bcf	3,6	;RP1=0, select bank0
  1156  075D  00AC               	movwf	___flmul@b+3
  1157  075E  3000               	movlw	0
  1158  075F  00AB               	movwf	___flmul@b+2
  1159  0760  3000               	movlw	0
  1160  0761  00AA               	movwf	___flmul@b+1
  1161  0762  3000               	movlw	0
  1162  0763  00A9               	movwf	___flmul@b
  1163  0764  084D               	movf	konwersja_na_bity@cz_ulamk+3,w
  1164  0765  00B0               	movwf	___flmul@a+3
  1165  0766  084C               	movf	konwersja_na_bity@cz_ulamk+2,w
  1166  0767  00AF               	movwf	___flmul@a+2
  1167  0768  084B               	movf	konwersja_na_bity@cz_ulamk+1,w
  1168  0769  00AE               	movwf	___flmul@a+1
  1169  076A  084A               	movf	konwersja_na_bity@cz_ulamk,w
  1170  076B  00AD               	movwf	___flmul@a
  1171  076C  118A  2025  118A   	fcall	___flmul
  1172  076F  1283               	bcf	3,5	;RP0=0, select bank0
  1173  0770  1303               	bcf	3,6	;RP1=0, select bank0
  1174  0771  082C               	movf	?___flmul+3,w
  1175  0772  00D3               	movwf	konwersja_na_bity@n+3
  1176  0773  082B               	movf	?___flmul+2,w
  1177  0774  00D2               	movwf	konwersja_na_bity@n+2
  1178  0775  082A               	movf	?___flmul+1,w
  1179  0776  00D1               	movwf	konwersja_na_bity@n+1
  1180  0777  0829               	movf	?___flmul,w
  1181  0778  00D0               	movwf	konwersja_na_bity@n
  1182  0779                     i1l1618:
  1183                           
  1184                           ;Przyspieszenie.c: 27:         cz_calk = (int)n;
  1185  0779  0853               	movf	konwersja_na_bity@n+3,w
  1186  077A  00A3               	movwf	___fltol@f1+3
  1187  077B  0852               	movf	konwersja_na_bity@n+2,w
  1188  077C  00A2               	movwf	___fltol@f1+2
  1189  077D  0851               	movf	konwersja_na_bity@n+1,w
  1190  077E  00A1               	movwf	___fltol@f1+1
  1191  077F  0850               	movf	konwersja_na_bity@n,w
  1192  0780  00A0               	movwf	___fltol@f1
  1193  0781  158A  26C8  118A   	fcall	___fltol
  1194  0784  1283               	bcf	3,5	;RP0=0, select bank0
  1195  0785  1303               	bcf	3,6	;RP1=0, select bank0
  1196  0786  0821               	movf	?___fltol+1,w
  1197  0787  00D7               	movwf	konwersja_na_bity@cz_calk+1
  1198  0788  0820               	movf	?___fltol,w
  1199  0789  00D6               	movwf	konwersja_na_bity@cz_calk
  1200  078A                     i1l1620:
  1201                           
  1202                           ;Przyspieszenie.c: 28:         cz_ulamk = n - cz_calk;
  1203  078A  0856               	movf	konwersja_na_bity@cz_calk,w
  1204  078B  00A0               	movwf	___xxtofl@val
  1205  078C  0857               	movf	konwersja_na_bity@cz_calk+1,w
  1206  078D  00A1               	movwf	___xxtofl@val+1
  1207  078E  3000               	movlw	0
  1208  078F  1BA1               	btfsc	___xxtofl@val+1,7
  1209  0790  30FF               	movlw	255
  1210  0791  00A2               	movwf	___xxtofl@val+2
  1211  0792  00A3               	movwf	___xxtofl@val+3
  1212  0793  3001               	movlw	1
  1213  0794  158A  2744  118A   	fcall	___xxtofl
  1214  0797  1283               	bcf	3,5	;RP0=0, select bank0
  1215  0798  1303               	bcf	3,6	;RP1=0, select bank0
  1216  0799  0823               	movf	?___xxtofl+3,w
  1217  079A  00B7               	movwf	___flsub@a+3
  1218  079B  0822               	movf	?___xxtofl+2,w
  1219  079C  00B6               	movwf	___flsub@a+2
  1220  079D  0821               	movf	?___xxtofl+1,w
  1221  079E  00B5               	movwf	___flsub@a+1
  1222  079F  0820               	movf	?___xxtofl,w
  1223  07A0  00B4               	movwf	___flsub@a
  1224  07A1  0853               	movf	konwersja_na_bity@n+3,w
  1225  07A2  00BB               	movwf	___flsub@b+3
  1226  07A3  0852               	movf	konwersja_na_bity@n+2,w
  1227  07A4  00BA               	movwf	___flsub@b+2
  1228  07A5  0851               	movf	konwersja_na_bity@n+1,w
  1229  07A6  00B9               	movwf	___flsub@b+1
  1230  07A7  0850               	movf	konwersja_na_bity@n,w
  1231  07A8  00B8               	movwf	___flsub@b
  1232  07A9  158A  2640  118A   	fcall	___flsub
  1233  07AC  1283               	bcf	3,5	;RP0=0, select bank0
  1234  07AD  1303               	bcf	3,6	;RP1=0, select bank0
  1235  07AE  0837               	movf	?___flsub+3,w
  1236  07AF  00CD               	movwf	konwersja_na_bity@cz_ulamk+3
  1237  07B0  0836               	movf	?___flsub+2,w
  1238  07B1  00CC               	movwf	konwersja_na_bity@cz_ulamk+2
  1239  07B2  0835               	movf	?___flsub+1,w
  1240  07B3  00CB               	movwf	konwersja_na_bity@cz_ulamk+1
  1241  07B4  0834               	movf	?___flsub,w
  1242  07B5  00CA               	movwf	konwersja_na_bity@cz_ulamk
  1243  07B6                     i1l1622:
  1244                           
  1245                           ;Przyspieszenie.c: 29:         wynik[i] = cz_calk > 0 ? '1' : '0';
  1246  07B6  0857               	movf	konwersja_na_bity@cz_calk+1,w
  1247  07B7  3A80               	xorlw	128
  1248  07B8  00FF               	movwf	btemp+1
  1249  07B9  3080               	movlw	128
  1250  07BA  027F               	subwf	btemp+1,w
  1251  07BB  1D03               	skipz
  1252  07BC  2FBF               	goto	u232_25
  1253  07BD  3001               	movlw	1
  1254  07BE  0256               	subwf	konwersja_na_bity@cz_calk,w
  1255  07BF                     u232_25:
  1256  07BF  1803               	skipnc
  1257  07C0  2FC2               	goto	u232_21
  1258  07C1  2FC3               	goto	u232_20
  1259  07C2                     u232_21:
  1260  07C2  2FCA               	goto	i1l1626
  1261  07C3                     u232_20:
  1262  07C3                     i1l1624:
  1263  07C3  3030               	movlw	48
  1264  07C4  1283               	bcf	3,5	;RP0=0, select bank0
  1265  07C5  1303               	bcf	3,6	;RP1=0, select bank0
  1266  07C6  00CE               	movwf	_konwersja_na_bity$90
  1267  07C7  3000               	movlw	0
  1268  07C8  00CF               	movwf	_konwersja_na_bity$90+1
  1269  07C9  2FD0               	goto	i1l1628
  1270  07CA                     i1l1626:
  1271  07CA  3031               	movlw	49
  1272  07CB  1283               	bcf	3,5	;RP0=0, select bank0
  1273  07CC  1303               	bcf	3,6	;RP1=0, select bank0
  1274  07CD  00CE               	movwf	_konwersja_na_bity$90
  1275  07CE  3000               	movlw	0
  1276  07CF  00CF               	movwf	_konwersja_na_bity$90+1
  1277  07D0                     i1l1628:
  1278  07D0  084E               	movf	_konwersja_na_bity$90,w
  1279  07D1  00C8               	movwf	??_konwersja_na_bity
  1280  07D2  0854               	movf	konwersja_na_bity@i,w
  1281  07D3  0747               	addwf	konwersja_na_bity@wynik,w
  1282  07D4  00C9               	movwf	??_konwersja_na_bity+1
  1283  07D5  0849               	movf	??_konwersja_na_bity+1,w
  1284  07D6  0084               	movwf	4
  1285  07D7  0848               	movf	??_konwersja_na_bity,w
  1286  07D8  1383               	bcf	3,7	;select IRP bank0
  1287  07D9  0080               	movwf	0
  1288  07DA                     i1l1630:
  1289                           
  1290                           ;Przyspieszenie.c: 30:     }
  1291  07DA  3001               	movlw	1
  1292  07DB  07D4               	addwf	konwersja_na_bity@i,f
  1293  07DC  1803               	skipnc
  1294  07DD  0AD5               	incf	konwersja_na_bity@i+1,f
  1295  07DE  3000               	movlw	0
  1296  07DF  07D5               	addwf	konwersja_na_bity@i+1,f
  1297  07E0                     i1l1632:
  1298  07E0  0855               	movf	konwersja_na_bity@i+1,w
  1299  07E1  3A80               	xorlw	128
  1300  07E2  00FF               	movwf	btemp+1
  1301  07E3  3080               	movlw	128
  1302  07E4  027F               	subwf	btemp+1,w
  1303  07E5  1D03               	skipz
  1304  07E6  2FE9               	goto	u233_25
  1305  07E7  3009               	movlw	9
  1306  07E8  0254               	subwf	konwersja_na_bity@i,w
  1307  07E9                     u233_25:
  1308  07E9  1C03               	skipc
  1309  07EA  2FEC               	goto	u233_21
  1310  07EB  2FED               	goto	u233_20
  1311  07EC                     u233_21:
  1312  07EC  2F5A               	goto	i1l1616
  1313  07ED                     u233_20:
  1314  07ED                     i1l83:
  1315  07ED  0008               	return
  1316  07EE                     __end_of_konwersja_na_bity:
  1317                           
  1318                           	psect	text4
  1319  0F44                     __ptext4:	
  1320 ;; *************** function ___xxtofl *****************
  1321 ;; Defined at:
  1322 ;;		line 10 in file "C:\Program Files\Microchip\xc8\v2.32\pic\sources\c90\common\xxtofl.c"
  1323 ;; Parameters:    Size  Location     Type
  1324 ;;  sign            1    wreg     unsigned char 
  1325 ;;  val             4    0[BANK0 ] long 
  1326 ;; Auto vars:     Size  Location     Type
  1327 ;;  sign            1    8[BANK0 ] unsigned char 
  1328 ;;  arg             4   10[BANK0 ] unsigned long 
  1329 ;;  exp             1    9[BANK0 ] unsigned char 
  1330 ;; Return value:  Size  Location     Type
  1331 ;;                  4    0[BANK0 ] unsigned char 
  1332 ;; Registers used:
  1333 ;;		wreg, status,2, status,0
  1334 ;; Tracked objects:
  1335 ;;		On entry : 0/0
  1336 ;;		On exit  : 0/0
  1337 ;;		Unchanged: 0/0
  1338 ;; Data sizes:     COMMON   BANK0   BANK1
  1339 ;;      Params:         0       4       0
  1340 ;;      Locals:         0       6       0
  1341 ;;      Temps:          0       4       0
  1342 ;;      Totals:         0      14       0
  1343 ;;Total ram usage:       14 bytes
  1344 ;; Hardware stack levels used: 1
  1345 ;; This function calls:
  1346 ;;		Nothing
  1347 ;; This function is called by:
  1348 ;;		_zero
  1349 ;;		_konwersja_na_bity
  1350 ;; This function uses a non-reentrant model
  1351 ;;
  1352                           
  1353                           
  1354                           ;psect for function ___xxtofl
  1355  0F44                     ___xxtofl:
  1356                           
  1357                           ;incstack = 0
  1358                           ; Regs used in ___xxtofl: [wreg+status,2+status,0]
  1359                           ;___xxtofl@sign stored from wreg
  1360  0F44  1283               	bcf	3,5	;RP0=0, select bank0
  1361  0F45  1303               	bcf	3,6	;RP1=0, select bank0
  1362  0F46  00A8               	movwf	___xxtofl@sign
  1363  0F47                     i1l1552:
  1364  0F47  0828               	movf	___xxtofl@sign,w
  1365  0F48  1903               	btfsc	3,2
  1366  0F49  2F4B               	goto	u218_21
  1367  0F4A  2F4C               	goto	u218_20
  1368  0F4B                     u218_21:
  1369  0F4B  2F60               	goto	i1l1558
  1370  0F4C                     u218_20:
  1371  0F4C                     i1l1554:
  1372  0F4C  1FA3               	btfss	___xxtofl@val+3,7
  1373  0F4D  2F4F               	goto	u219_21
  1374  0F4E  2F50               	goto	u219_20
  1375  0F4F                     u219_21:
  1376  0F4F  2F60               	goto	i1l1558
  1377  0F50                     u219_20:
  1378  0F50                     i1l1556:
  1379  0F50  0920               	comf	___xxtofl@val,w
  1380  0F51  00AA               	movwf	___xxtofl@arg
  1381  0F52  0921               	comf	___xxtofl@val+1,w
  1382  0F53  00AB               	movwf	___xxtofl@arg+1
  1383  0F54  0922               	comf	___xxtofl@val+2,w
  1384  0F55  00AC               	movwf	___xxtofl@arg+2
  1385  0F56  0923               	comf	___xxtofl@val+3,w
  1386  0F57  00AD               	movwf	___xxtofl@arg+3
  1387  0F58  0AAA               	incf	___xxtofl@arg,f
  1388  0F59  1903               	skipnz
  1389  0F5A  0AAB               	incf	___xxtofl@arg+1,f
  1390  0F5B  1903               	skipnz
  1391  0F5C  0AAC               	incf	___xxtofl@arg+2,f
  1392  0F5D  1903               	skipnz
  1393  0F5E  0AAD               	incf	___xxtofl@arg+3,f
  1394  0F5F  2F68               	goto	i1l520
  1395  0F60                     i1l1558:
  1396  0F60  0823               	movf	___xxtofl@val+3,w
  1397  0F61  00AD               	movwf	___xxtofl@arg+3
  1398  0F62  0822               	movf	___xxtofl@val+2,w
  1399  0F63  00AC               	movwf	___xxtofl@arg+2
  1400  0F64  0821               	movf	___xxtofl@val+1,w
  1401  0F65  00AB               	movwf	___xxtofl@arg+1
  1402  0F66  0820               	movf	___xxtofl@val,w
  1403  0F67  00AA               	movwf	___xxtofl@arg
  1404  0F68                     i1l520:
  1405  0F68  0823               	movf	___xxtofl@val+3,w
  1406  0F69  0422               	iorwf	___xxtofl@val+2,w
  1407  0F6A  0421               	iorwf	___xxtofl@val+1,w
  1408  0F6B  0420               	iorwf	___xxtofl@val,w
  1409  0F6C  1D03               	skipz
  1410  0F6D  2F6F               	goto	u220_21
  1411  0F6E  2F70               	goto	u220_20
  1412  0F6F                     u220_21:
  1413  0F6F  2F79               	goto	i1l1564
  1414  0F70                     u220_20:
  1415  0F70                     i1l1560:
  1416  0F70  3000               	movlw	0
  1417  0F71  00A3               	movwf	?___xxtofl+3
  1418  0F72  3000               	movlw	0
  1419  0F73  00A2               	movwf	?___xxtofl+2
  1420  0F74  3000               	movlw	0
  1421  0F75  00A1               	movwf	?___xxtofl+1
  1422  0F76  3000               	movlw	0
  1423  0F77  00A0               	movwf	?___xxtofl
  1424  0F78  2FFF               	goto	i1l522
  1425  0F79                     i1l1564:
  1426  0F79  3096               	movlw	150
  1427  0F7A  00A4               	movwf	??___xxtofl
  1428  0F7B  0824               	movf	??___xxtofl,w
  1429  0F7C  00A9               	movwf	___xxtofl@exp
  1430  0F7D  2F8B               	goto	i1l1568
  1431  0F7E                     i1l1566:
  1432  0F7E  3001               	movlw	1
  1433  0F7F  00A4               	movwf	??___xxtofl
  1434  0F80  0824               	movf	??___xxtofl,w
  1435  0F81  07A9               	addwf	___xxtofl@exp,f
  1436  0F82  3001               	movlw	1
  1437  0F83                     u221_25:
  1438  0F83  1003               	clrc
  1439  0F84  0CAD               	rrf	___xxtofl@arg+3,f
  1440  0F85  0CAC               	rrf	___xxtofl@arg+2,f
  1441  0F86  0CAB               	rrf	___xxtofl@arg+1,f
  1442  0F87  0CAA               	rrf	___xxtofl@arg,f
  1443  0F88  3EFF               	addlw	-1
  1444  0F89  1D03               	skipz
  1445  0F8A  2F83               	goto	u221_25
  1446  0F8B                     i1l1568:
  1447  0F8B  30FE               	movlw	254
  1448  0F8C  052D               	andwf	___xxtofl@arg+3,w
  1449  0F8D  1D03               	btfss	3,2
  1450  0F8E  2F90               	goto	u222_21
  1451  0F8F  2F91               	goto	u222_20
  1452  0F90                     u222_21:
  1453  0F90  2F7E               	goto	i1l1566
  1454  0F91                     u222_20:
  1455  0F91  2FAD               	goto	i1l526
  1456  0F92                     i1l1570:
  1457  0F92  3001               	movlw	1
  1458  0F93  00A4               	movwf	??___xxtofl
  1459  0F94  0824               	movf	??___xxtofl,w
  1460  0F95  07A9               	addwf	___xxtofl@exp,f
  1461  0F96                     i1l1572:
  1462  0F96  3001               	movlw	1
  1463  0F97  07AA               	addwf	___xxtofl@arg,f
  1464  0F98  3000               	movlw	0
  1465  0F99  1803               	skipnc
  1466  0F9A  3001               	movlw	1
  1467  0F9B  07AB               	addwf	___xxtofl@arg+1,f
  1468  0F9C  3000               	movlw	0
  1469  0F9D  1803               	skipnc
  1470  0F9E  3001               	movlw	1
  1471  0F9F  07AC               	addwf	___xxtofl@arg+2,f
  1472  0FA0  3000               	movlw	0
  1473  0FA1  1803               	skipnc
  1474  0FA2  3001               	movlw	1
  1475  0FA3  07AD               	addwf	___xxtofl@arg+3,f
  1476  0FA4                     i1l1574:
  1477  0FA4  3001               	movlw	1
  1478  0FA5                     u223_25:
  1479  0FA5  1003               	clrc
  1480  0FA6  0CAD               	rrf	___xxtofl@arg+3,f
  1481  0FA7  0CAC               	rrf	___xxtofl@arg+2,f
  1482  0FA8  0CAB               	rrf	___xxtofl@arg+1,f
  1483  0FA9  0CAA               	rrf	___xxtofl@arg,f
  1484  0FAA  3EFF               	addlw	-1
  1485  0FAB  1D03               	skipz
  1486  0FAC  2FA5               	goto	u223_25
  1487  0FAD                     i1l526:
  1488  0FAD  30FF               	movlw	255
  1489  0FAE  052D               	andwf	___xxtofl@arg+3,w
  1490  0FAF  1D03               	btfss	3,2
  1491  0FB0  2FB2               	goto	u224_21
  1492  0FB1  2FB3               	goto	u224_20
  1493  0FB2                     u224_21:
  1494  0FB2  2F92               	goto	i1l1570
  1495  0FB3                     u224_20:
  1496  0FB3  2FBF               	goto	i1l1578
  1497  0FB4                     i1l1576:
  1498  0FB4  3001               	movlw	1
  1499  0FB5  02A9               	subwf	___xxtofl@exp,f
  1500  0FB6  3001               	movlw	1
  1501  0FB7  00A4               	movwf	??___xxtofl
  1502  0FB8                     u225_25:
  1503  0FB8  1003               	clrc
  1504  0FB9  0DAA               	rlf	___xxtofl@arg,f
  1505  0FBA  0DAB               	rlf	___xxtofl@arg+1,f
  1506  0FBB  0DAC               	rlf	___xxtofl@arg+2,f
  1507  0FBC  0DAD               	rlf	___xxtofl@arg+3,f
  1508  0FBD  0BA4               	decfsz	??___xxtofl,f
  1509  0FBE  2FB8               	goto	u225_25
  1510  0FBF                     i1l1578:
  1511  0FBF  1BAC               	btfsc	___xxtofl@arg+2,7
  1512  0FC0  2FC2               	goto	u226_21
  1513  0FC1  2FC3               	goto	u226_20
  1514  0FC2                     u226_21:
  1515  0FC2  2FC9               	goto	i1l533
  1516  0FC3                     u226_20:
  1517  0FC3                     i1l1580:
  1518  0FC3  3002               	movlw	2
  1519  0FC4  0229               	subwf	___xxtofl@exp,w
  1520  0FC5  1803               	skipnc
  1521  0FC6  2FC8               	goto	u227_21
  1522  0FC7  2FC9               	goto	u227_20
  1523  0FC8                     u227_21:
  1524  0FC8  2FB4               	goto	i1l1576
  1525  0FC9                     u227_20:
  1526  0FC9                     i1l533:
  1527  0FC9  1829               	btfsc	___xxtofl@exp,0
  1528  0FCA  2FCC               	goto	u228_21
  1529  0FCB  2FCD               	goto	u228_20
  1530  0FCC                     u228_21:
  1531  0FCC  2FD5               	goto	i1l534
  1532  0FCD                     u228_20:
  1533  0FCD                     i1l1582:
  1534  0FCD  30FF               	movlw	255
  1535  0FCE  05AA               	andwf	___xxtofl@arg,f
  1536  0FCF  30FF               	movlw	255
  1537  0FD0  05AB               	andwf	___xxtofl@arg+1,f
  1538  0FD1  307F               	movlw	127
  1539  0FD2  05AC               	andwf	___xxtofl@arg+2,f
  1540  0FD3  30FF               	movlw	255
  1541  0FD4  05AD               	andwf	___xxtofl@arg+3,f
  1542  0FD5                     i1l534:
  1543  0FD5  1003               	clrc
  1544  0FD6  0CA9               	rrf	___xxtofl@exp,f
  1545  0FD7                     i1l1584:
  1546  0FD7  0829               	movf	___xxtofl@exp,w
  1547  0FD8  00A4               	movwf	??___xxtofl
  1548  0FD9  01A5               	clrf	??___xxtofl+1
  1549  0FDA  01A6               	clrf	??___xxtofl+2
  1550  0FDB  01A7               	clrf	??___xxtofl+3
  1551  0FDC  3018               	movlw	24
  1552  0FDD                     u229_25:
  1553  0FDD  1003               	clrc
  1554  0FDE  0DA4               	rlf	??___xxtofl,f
  1555  0FDF  0DA5               	rlf	??___xxtofl+1,f
  1556  0FE0  0DA6               	rlf	??___xxtofl+2,f
  1557  0FE1  0DA7               	rlf	??___xxtofl+3,f
  1558  0FE2                     u229_20:
  1559  0FE2  3EFF               	addlw	-1
  1560  0FE3  1D03               	skipz
  1561  0FE4  2FDD               	goto	u229_25
  1562  0FE5  0824               	movf	??___xxtofl,w
  1563  0FE6  04AA               	iorwf	___xxtofl@arg,f
  1564  0FE7  0825               	movf	??___xxtofl+1,w
  1565  0FE8  04AB               	iorwf	___xxtofl@arg+1,f
  1566  0FE9  0826               	movf	??___xxtofl+2,w
  1567  0FEA  04AC               	iorwf	___xxtofl@arg+2,f
  1568  0FEB  0827               	movf	??___xxtofl+3,w
  1569  0FEC  04AD               	iorwf	___xxtofl@arg+3,f
  1570  0FED                     i1l1586:
  1571  0FED  0828               	movf	___xxtofl@sign,w
  1572  0FEE  1903               	btfsc	3,2
  1573  0FEF  2FF1               	goto	u230_21
  1574  0FF0  2FF2               	goto	u230_20
  1575  0FF1                     u230_21:
  1576  0FF1  2FF7               	goto	i1l1592
  1577  0FF2                     u230_20:
  1578  0FF2                     i1l1588:
  1579  0FF2  1FA3               	btfss	___xxtofl@val+3,7
  1580  0FF3  2FF5               	goto	u231_21
  1581  0FF4  2FF6               	goto	u231_20
  1582  0FF5                     u231_21:
  1583  0FF5  2FF7               	goto	i1l1592
  1584  0FF6                     u231_20:
  1585  0FF6                     i1l1590:
  1586  0FF6  17AD               	bsf	___xxtofl@arg+3,7
  1587  0FF7                     i1l1592:
  1588  0FF7  082D               	movf	___xxtofl@arg+3,w
  1589  0FF8  00A3               	movwf	?___xxtofl+3
  1590  0FF9  082C               	movf	___xxtofl@arg+2,w
  1591  0FFA  00A2               	movwf	?___xxtofl+2
  1592  0FFB  082B               	movf	___xxtofl@arg+1,w
  1593  0FFC  00A1               	movwf	?___xxtofl+1
  1594  0FFD  082A               	movf	___xxtofl@arg,w
  1595  0FFE  00A0               	movwf	?___xxtofl
  1596  0FFF                     i1l522:
  1597  0FFF  0008               	return
  1598  1000                     __end_of___xxtofl:
  1599                           
  1600                           	psect	text5
  1601  0EC8                     __ptext5:	
  1602 ;; *************** function ___fltol *****************
  1603 ;; Defined at:
  1604 ;;		line 43 in file "C:\Program Files\Microchip\xc8\v2.32\pic\sources\c90\common\fltol.c"
  1605 ;; Parameters:    Size  Location     Type
  1606 ;;  f1              4    0[BANK0 ] unsigned char 
  1607 ;; Auto vars:     Size  Location     Type
  1608 ;;  exp1            1   10[BANK0 ] unsigned char 
  1609 ;;  sign1           1    9[BANK0 ] unsigned char 
  1610 ;; Return value:  Size  Location     Type
  1611 ;;                  4    0[BANK0 ] long 
  1612 ;; Registers used:
  1613 ;;		wreg, status,2, status,0
  1614 ;; Tracked objects:
  1615 ;;		On entry : 0/0
  1616 ;;		On exit  : 0/0
  1617 ;;		Unchanged: 0/0
  1618 ;; Data sizes:     COMMON   BANK0   BANK1
  1619 ;;      Params:         0       4       0
  1620 ;;      Locals:         0       2       0
  1621 ;;      Temps:          0       5       0
  1622 ;;      Totals:         0      11       0
  1623 ;;Total ram usage:       11 bytes
  1624 ;; Hardware stack levels used: 1
  1625 ;; This function calls:
  1626 ;;		Nothing
  1627 ;; This function is called by:
  1628 ;;		_konwersja_na_bity
  1629 ;; This function uses a non-reentrant model
  1630 ;;
  1631                           
  1632                           
  1633                           ;psect for function ___fltol
  1634  0EC8                     ___fltol:
  1635  0EC8                     i1l1370:	
  1636                           ;incstack = 0
  1637                           ; Regs used in ___fltol: [wreg+status,2+status,0]
  1638                           
  1639  0EC8  1003               	clrc
  1640  0EC9  1283               	bcf	3,5	;RP0=0, select bank0
  1641  0ECA  1303               	bcf	3,6	;RP1=0, select bank0
  1642  0ECB  0D22               	rlf	___fltol@f1+2,w
  1643  0ECC  0D23               	rlf	___fltol@f1+3,w
  1644  0ECD  00A4               	movwf	??___fltol
  1645  0ECE  0824               	movf	??___fltol,w
  1646  0ECF  00AA               	movwf	___fltol@exp1
  1647  0ED0  082A               	movf	___fltol@exp1,w
  1648  0ED1  1D03               	btfss	3,2
  1649  0ED2  2ED4               	goto	u171_21
  1650  0ED3  2ED5               	goto	u171_20
  1651  0ED4                     u171_21:
  1652  0ED4  2EDE               	goto	i1l1376
  1653  0ED5                     u171_20:
  1654  0ED5                     i1l1372:
  1655  0ED5  3000               	movlw	0
  1656  0ED6  00A3               	movwf	?___fltol+3
  1657  0ED7  3000               	movlw	0
  1658  0ED8  00A2               	movwf	?___fltol+2
  1659  0ED9  3000               	movlw	0
  1660  0EDA  00A1               	movwf	?___fltol+1
  1661  0EDB  3000               	movlw	0
  1662  0EDC  00A0               	movwf	?___fltol
  1663  0EDD  2F43               	goto	i1l273
  1664  0EDE                     i1l1376:
  1665  0EDE  0820               	movf	___fltol@f1,w
  1666  0EDF  00A4               	movwf	??___fltol
  1667  0EE0  0821               	movf	___fltol@f1+1,w
  1668  0EE1  00A5               	movwf	??___fltol+1
  1669  0EE2  0822               	movf	___fltol@f1+2,w
  1670  0EE3  00A6               	movwf	??___fltol+2
  1671  0EE4  0823               	movf	___fltol@f1+3,w
  1672  0EE5  00A7               	movwf	??___fltol+3
  1673  0EE6  301F               	movlw	31
  1674  0EE7                     u172_25:
  1675  0EE7  1003               	clrc
  1676  0EE8  0CA7               	rrf	??___fltol+3,f
  1677  0EE9  0CA6               	rrf	??___fltol+2,f
  1678  0EEA  0CA5               	rrf	??___fltol+1,f
  1679  0EEB  0CA4               	rrf	??___fltol,f
  1680  0EEC                     u172_20:
  1681  0EEC  3EFF               	addlw	-1
  1682  0EED  1D03               	skipz
  1683  0EEE  2EE7               	goto	u172_25
  1684  0EEF  0824               	movf	??___fltol,w
  1685  0EF0  00A8               	movwf	??___fltol+4
  1686  0EF1  0828               	movf	??___fltol+4,w
  1687  0EF2  00A9               	movwf	___fltol@sign1
  1688  0EF3                     i1l1378:
  1689  0EF3  17A2               	bsf	___fltol@f1+2,7
  1690  0EF4                     i1l1380:
  1691  0EF4  30FF               	movlw	255
  1692  0EF5  05A0               	andwf	___fltol@f1,f
  1693  0EF6  30FF               	movlw	255
  1694  0EF7  05A1               	andwf	___fltol@f1+1,f
  1695  0EF8  30FF               	movlw	255
  1696  0EF9  05A2               	andwf	___fltol@f1+2,f
  1697  0EFA  3000               	movlw	0
  1698  0EFB  05A3               	andwf	___fltol@f1+3,f
  1699  0EFC                     i1l1382:
  1700  0EFC  3096               	movlw	150
  1701  0EFD  02AA               	subwf	___fltol@exp1,f
  1702  0EFE                     i1l1384:
  1703  0EFE  1FAA               	btfss	___fltol@exp1,7
  1704  0EFF  2F01               	goto	u173_21
  1705  0F00  2F02               	goto	u173_20
  1706  0F01                     u173_21:
  1707  0F01  2F1C               	goto	i1l1394
  1708  0F02                     u173_20:
  1709  0F02                     i1l1386:
  1710  0F02  082A               	movf	___fltol@exp1,w
  1711  0F03  3A80               	xorlw	128
  1712  0F04  3E97               	addlw	151
  1713  0F05  1803               	skipnc
  1714  0F06  2F08               	goto	u174_21
  1715  0F07  2F09               	goto	u174_20
  1716  0F08                     u174_21:
  1717  0F08  2F0A               	goto	i1l1392
  1718  0F09                     u174_20:
  1719  0F09  2ED5               	goto	i1l1372
  1720  0F0A                     i1l1392:
  1721  0F0A  3001               	movlw	1
  1722  0F0B                     u175_25:
  1723  0F0B  1003               	clrc
  1724  0F0C  0CA3               	rrf	___fltol@f1+3,f
  1725  0F0D  0CA2               	rrf	___fltol@f1+2,f
  1726  0F0E  0CA1               	rrf	___fltol@f1+1,f
  1727  0F0F  0CA0               	rrf	___fltol@f1,f
  1728  0F10  3EFF               	addlw	-1
  1729  0F11  1D03               	skipz
  1730  0F12  2F0B               	goto	u175_25
  1731  0F13  3001               	movlw	1
  1732  0F14  00A4               	movwf	??___fltol
  1733  0F15  0824               	movf	??___fltol,w
  1734  0F16  07AA               	addwf	___fltol@exp1,f
  1735  0F17  1D03               	btfss	3,2
  1736  0F18  2F1A               	goto	u176_21
  1737  0F19  2F1B               	goto	u176_20
  1738  0F1A                     u176_21:
  1739  0F1A  2F0A               	goto	i1l1392
  1740  0F1B                     u176_20:
  1741  0F1B  2F33               	goto	i1l1402
  1742  0F1C                     i1l1394:
  1743  0F1C  3020               	movlw	32
  1744  0F1D  022A               	subwf	___fltol@exp1,w
  1745  0F1E  1C03               	skipc
  1746  0F1F  2F21               	goto	u177_21
  1747  0F20  2F22               	goto	u177_20
  1748  0F21                     u177_21:
  1749  0F21  2F2E               	goto	i1l280
  1750  0F22                     u177_20:
  1751  0F22  2ED5               	goto	i1l1372
  1752  0F23                     i1l1400:
  1753  0F23  3001               	movlw	1
  1754  0F24  00A4               	movwf	??___fltol
  1755  0F25                     u178_25:
  1756  0F25  1003               	clrc
  1757  0F26  0DA0               	rlf	___fltol@f1,f
  1758  0F27  0DA1               	rlf	___fltol@f1+1,f
  1759  0F28  0DA2               	rlf	___fltol@f1+2,f
  1760  0F29  0DA3               	rlf	___fltol@f1+3,f
  1761  0F2A  0BA4               	decfsz	??___fltol,f
  1762  0F2B  2F25               	goto	u178_25
  1763  0F2C  3001               	movlw	1
  1764  0F2D  02AA               	subwf	___fltol@exp1,f
  1765  0F2E                     i1l280:
  1766  0F2E  082A               	movf	___fltol@exp1,w
  1767  0F2F  1D03               	btfss	3,2
  1768  0F30  2F32               	goto	u179_21
  1769  0F31  2F33               	goto	u179_20
  1770  0F32                     u179_21:
  1771  0F32  2F23               	goto	i1l1400
  1772  0F33                     u179_20:
  1773  0F33                     i1l1402:
  1774  0F33  0829               	movf	___fltol@sign1,w
  1775  0F34  1903               	btfsc	3,2
  1776  0F35  2F37               	goto	u180_21
  1777  0F36  2F38               	goto	u180_20
  1778  0F37                     u180_21:
  1779  0F37  2F43               	goto	i1l283
  1780  0F38                     u180_20:
  1781  0F38                     i1l1404:
  1782  0F38  09A0               	comf	___fltol@f1,f
  1783  0F39  09A1               	comf	___fltol@f1+1,f
  1784  0F3A  09A2               	comf	___fltol@f1+2,f
  1785  0F3B  09A3               	comf	___fltol@f1+3,f
  1786  0F3C  0AA0               	incf	___fltol@f1,f
  1787  0F3D  1903               	skipnz
  1788  0F3E  0AA1               	incf	___fltol@f1+1,f
  1789  0F3F  1903               	skipnz
  1790  0F40  0AA2               	incf	___fltol@f1+2,f
  1791  0F41  1903               	skipnz
  1792  0F42  0AA3               	incf	___fltol@f1+3,f
  1793  0F43                     i1l283:
  1794  0F43                     i1l273:
  1795  0F43  0008               	return
  1796  0F44                     __end_of___fltol:
  1797                           
  1798                           	psect	text6
  1799  0E40                     __ptext6:	
  1800 ;; *************** function ___flsub *****************
  1801 ;; Defined at:
  1802 ;;		line 242 in file "C:\Program Files\Microchip\xc8\v2.32\pic\sources\c90\common\sprcadd.c"
  1803 ;; Parameters:    Size  Location     Type
  1804 ;;  a               4   20[BANK0 ] long 
  1805 ;;  b               4   24[BANK0 ] long 
  1806 ;; Auto vars:     Size  Location     Type
  1807 ;;		None
  1808 ;; Return value:  Size  Location     Type
  1809 ;;                  4   20[BANK0 ] long 
  1810 ;; Registers used:
  1811 ;;		wreg, status,2, status,0, btemp+1, pclath, cstack
  1812 ;; Tracked objects:
  1813 ;;		On entry : 0/0
  1814 ;;		On exit  : 0/0
  1815 ;;		Unchanged: 0/0
  1816 ;; Data sizes:     COMMON   BANK0   BANK1
  1817 ;;      Params:         0       8       0
  1818 ;;      Locals:         0       0       0
  1819 ;;      Temps:          0       0       0
  1820 ;;      Totals:         0       8       0
  1821 ;;Total ram usage:        8 bytes
  1822 ;; Hardware stack levels used: 1
  1823 ;; Hardware stack levels required when called: 1
  1824 ;; This function calls:
  1825 ;;		___fladd
  1826 ;; This function is called by:
  1827 ;;		_konwersja_na_bity
  1828 ;; This function uses a non-reentrant model
  1829 ;;
  1830                           
  1831                           
  1832                           ;psect for function ___flsub
  1833  0E40                     ___flsub:
  1834  0E40                     i1l1406:	
  1835                           ;incstack = 0
  1836                           ; Regs used in ___flsub: [wreg+status,2+status,0+btemp+1+pclath+cstack]
  1837                           
  1838  0E40  3080               	movlw	128
  1839  0E41  1283               	bcf	3,5	;RP0=0, select bank0
  1840  0E42  1303               	bcf	3,6	;RP1=0, select bank0
  1841  0E43  06B7               	xorwf	___flsub@a+3,f
  1842  0E44                     i1l1408:
  1843  0E44  083B               	movf	___flsub@b+3,w
  1844  0E45  00A3               	movwf	___fladd@b+3
  1845  0E46  083A               	movf	___flsub@b+2,w
  1846  0E47  00A2               	movwf	___fladd@b+2
  1847  0E48  0839               	movf	___flsub@b+1,w
  1848  0E49  00A1               	movwf	___fladd@b+1
  1849  0E4A  0838               	movf	___flsub@b,w
  1850  0E4B  00A0               	movwf	___fladd@b
  1851  0E4C  0837               	movf	___flsub@a+3,w
  1852  0E4D  00A7               	movwf	___fladd@a+3
  1853  0E4E  0836               	movf	___flsub@a+2,w
  1854  0E4F  00A6               	movwf	___fladd@a+2
  1855  0E50  0835               	movf	___flsub@a+1,w
  1856  0E51  00A5               	movwf	___fladd@a+1
  1857  0E52  0834               	movf	___flsub@a,w
  1858  0E53  00A4               	movwf	___fladd@a
  1859  0E54  118A  2374  158A   	fcall	___fladd
  1860  0E57  1283               	bcf	3,5	;RP0=0, select bank0
  1861  0E58  1303               	bcf	3,6	;RP1=0, select bank0
  1862  0E59  0823               	movf	?___fladd+3,w
  1863  0E5A  00B7               	movwf	?___flsub+3
  1864  0E5B  0822               	movf	?___fladd+2,w
  1865  0E5C  00B6               	movwf	?___flsub+2
  1866  0E5D  0821               	movf	?___fladd+1,w
  1867  0E5E  00B5               	movwf	?___flsub+1
  1868  0E5F  0820               	movf	?___fladd,w
  1869  0E60  00B4               	movwf	?___flsub
  1870  0E61                     i1l426:
  1871  0E61  0008               	return
  1872  0E62                     __end_of___flsub:
  1873                           
  1874                           	psect	text7
  1875  0374                     __ptext7:	
  1876 ;; *************** function ___fladd *****************
  1877 ;; Defined at:
  1878 ;;		line 10 in file "C:\Program Files\Microchip\xc8\v2.32\pic\sources\c90\common\sprcadd.c"
  1879 ;; Parameters:    Size  Location     Type
  1880 ;;  b               4    0[BANK0 ] long 
  1881 ;;  a               4    4[BANK0 ] long 
  1882 ;; Auto vars:     Size  Location     Type
  1883 ;;  grs             1   19[BANK0 ] unsigned char 
  1884 ;;  bexp            1   18[BANK0 ] unsigned char 
  1885 ;;  aexp            1   17[BANK0 ] unsigned char 
  1886 ;;  signs           1   16[BANK0 ] unsigned char 
  1887 ;; Return value:  Size  Location     Type
  1888 ;;                  4    0[BANK0 ] unsigned char 
  1889 ;; Registers used:
  1890 ;;		wreg, status,2, status,0, btemp+1
  1891 ;; Tracked objects:
  1892 ;;		On entry : 0/0
  1893 ;;		On exit  : 0/0
  1894 ;;		Unchanged: 0/0
  1895 ;; Data sizes:     COMMON   BANK0   BANK1
  1896 ;;      Params:         0       8       0
  1897 ;;      Locals:         0       4       0
  1898 ;;      Temps:          0       8       0
  1899 ;;      Totals:         0      20       0
  1900 ;;Total ram usage:       20 bytes
  1901 ;; Hardware stack levels used: 1
  1902 ;; This function calls:
  1903 ;;		Nothing
  1904 ;; This function is called by:
  1905 ;;		___flsub
  1906 ;; This function uses a non-reentrant model
  1907 ;;
  1908                           
  1909                           
  1910                           ;psect for function ___fladd
  1911  0374                     ___fladd:
  1912  0374                     i1l1162:	
  1913                           ;incstack = 0
  1914                           ; Regs used in ___fladd: [wreg+status,2+status,0+btemp+1]
  1915                           
  1916  0374  1283               	bcf	3,5	;RP0=0, select bank0
  1917  0375  1303               	bcf	3,6	;RP1=0, select bank0
  1918  0376  0823               	movf	___fladd@b+3,w
  1919  0377  3980               	andlw	128
  1920  0378  00A8               	movwf	??___fladd
  1921  0379  0828               	movf	??___fladd,w
  1922  037A  00B0               	movwf	___fladd@signs
  1923  037B                     i1l1164:
  1924  037B  0823               	movf	___fladd@b+3,w
  1925  037C  00A8               	movwf	??___fladd
  1926  037D  0728               	addwf	??___fladd,w
  1927  037E  00A9               	movwf	??___fladd+1
  1928  037F  0829               	movf	??___fladd+1,w
  1929  0380  00B2               	movwf	___fladd@bexp
  1930  0381                     i1l1166:
  1931  0381  1FA2               	btfss	___fladd@b+2,7
  1932  0382  2B84               	goto	u122_21
  1933  0383  2B85               	goto	u122_20
  1934  0384                     u122_21:
  1935  0384  2B86               	goto	i1l1170
  1936  0385                     u122_20:
  1937  0385                     i1l1168:
  1938  0385  1432               	bsf	___fladd@bexp,0
  1939  0386                     i1l1170:
  1940  0386  0832               	movf	___fladd@bexp,w
  1941  0387  1903               	btfsc	3,2
  1942  0388  2B8A               	goto	u123_21
  1943  0389  2B8B               	goto	u123_20
  1944  038A                     u123_21:
  1945  038A  2B9B               	goto	i1l1180
  1946  038B                     u123_20:
  1947  038B                     i1l1172:
  1948  038B  0A32               	incf	___fladd@bexp,w
  1949  038C  1D03               	btfss	3,2
  1950  038D  2B8F               	goto	u124_21
  1951  038E  2B90               	goto	u124_20
  1952  038F                     u124_21:
  1953  038F  2B98               	goto	i1l1176
  1954  0390                     u124_20:
  1955  0390                     i1l1174:
  1956  0390  3000               	movlw	0
  1957  0391  00A3               	movwf	___fladd@b+3
  1958  0392  3000               	movlw	0
  1959  0393  00A2               	movwf	___fladd@b+2
  1960  0394  3000               	movlw	0
  1961  0395  00A1               	movwf	___fladd@b+1
  1962  0396  3000               	movlw	0
  1963  0397  00A0               	movwf	___fladd@b
  1964  0398                     i1l1176:
  1965  0398  17A2               	bsf	___fladd@b+2,7
  1966  0399                     i1l1178:
  1967  0399  01A3               	clrf	___fladd@b+3
  1968  039A  2BA3               	goto	i1l1182
  1969  039B                     i1l1180:
  1970  039B  3000               	movlw	0
  1971  039C  00A3               	movwf	___fladd@b+3
  1972  039D  3000               	movlw	0
  1973  039E  00A2               	movwf	___fladd@b+2
  1974  039F  3000               	movlw	0
  1975  03A0  00A1               	movwf	___fladd@b+1
  1976  03A1  3000               	movlw	0
  1977  03A2  00A0               	movwf	___fladd@b
  1978  03A3                     i1l1182:
  1979  03A3  0827               	movf	___fladd@a+3,w
  1980  03A4  3980               	andlw	128
  1981  03A5  00A8               	movwf	??___fladd
  1982  03A6  0828               	movf	??___fladd,w
  1983  03A7  00B1               	movwf	___fladd@aexp
  1984  03A8                     i1l1184:
  1985  03A8  0831               	movf	___fladd@aexp,w
  1986  03A9  0630               	xorwf	___fladd@signs,w
  1987  03AA  1903               	skipnz
  1988  03AB  2BAD               	goto	u125_21
  1989  03AC  2BAE               	goto	u125_20
  1990  03AD                     u125_21:
  1991  03AD  2BAF               	goto	i1l1188
  1992  03AE                     u125_20:
  1993  03AE                     i1l1186:
  1994  03AE  1730               	bsf	___fladd@signs,6
  1995  03AF                     i1l1188:
  1996  03AF  0827               	movf	___fladd@a+3,w
  1997  03B0  00A8               	movwf	??___fladd
  1998  03B1  0728               	addwf	??___fladd,w
  1999  03B2  00A9               	movwf	??___fladd+1
  2000  03B3  0829               	movf	??___fladd+1,w
  2001  03B4  00B1               	movwf	___fladd@aexp
  2002  03B5                     i1l1190:
  2003  03B5  1FA6               	btfss	___fladd@a+2,7
  2004  03B6  2BB8               	goto	u126_21
  2005  03B7  2BB9               	goto	u126_20
  2006  03B8                     u126_21:
  2007  03B8  2BBA               	goto	i1l1194
  2008  03B9                     u126_20:
  2009  03B9                     i1l1192:
  2010  03B9  1431               	bsf	___fladd@aexp,0
  2011  03BA                     i1l1194:
  2012  03BA  0831               	movf	___fladd@aexp,w
  2013  03BB  1903               	btfsc	3,2
  2014  03BC  2BBE               	goto	u127_21
  2015  03BD  2BBF               	goto	u127_20
  2016  03BE                     u127_21:
  2017  03BE  2BCF               	goto	i1l1204
  2018  03BF                     u127_20:
  2019  03BF                     i1l1196:
  2020  03BF  0A31               	incf	___fladd@aexp,w
  2021  03C0  1D03               	btfss	3,2
  2022  03C1  2BC3               	goto	u128_21
  2023  03C2  2BC4               	goto	u128_20
  2024  03C3                     u128_21:
  2025  03C3  2BCC               	goto	i1l1200
  2026  03C4                     u128_20:
  2027  03C4                     i1l1198:
  2028  03C4  3000               	movlw	0
  2029  03C5  00A7               	movwf	___fladd@a+3
  2030  03C6  3000               	movlw	0
  2031  03C7  00A6               	movwf	___fladd@a+2
  2032  03C8  3000               	movlw	0
  2033  03C9  00A5               	movwf	___fladd@a+1
  2034  03CA  3000               	movlw	0
  2035  03CB  00A4               	movwf	___fladd@a
  2036  03CC                     i1l1200:
  2037  03CC  17A6               	bsf	___fladd@a+2,7
  2038  03CD                     i1l1202:
  2039  03CD  01A7               	clrf	___fladd@a+3
  2040  03CE  2BD7               	goto	i1l380
  2041  03CF                     i1l1204:
  2042  03CF  3000               	movlw	0
  2043  03D0  00A7               	movwf	___fladd@a+3
  2044  03D1  3000               	movlw	0
  2045  03D2  00A6               	movwf	___fladd@a+2
  2046  03D3  3000               	movlw	0
  2047  03D4  00A5               	movwf	___fladd@a+1
  2048  03D5  3000               	movlw	0
  2049  03D6  00A4               	movwf	___fladd@a
  2050  03D7                     i1l380:
  2051  03D7  0832               	movf	___fladd@bexp,w
  2052  03D8  0231               	subwf	___fladd@aexp,w
  2053  03D9  1803               	skipnc
  2054  03DA  2BDC               	goto	u129_21
  2055  03DB  2BDD               	goto	u129_20
  2056  03DC                     u129_21:
  2057  03DC  2C21               	goto	i1l1240
  2058  03DD                     u129_20:
  2059  03DD                     i1l1206:
  2060  03DD  1F30               	btfss	___fladd@signs,6
  2061  03DE  2BE0               	goto	u130_21
  2062  03DF  2BE1               	goto	u130_20
  2063  03E0                     u130_21:
  2064  03E0  2BE5               	goto	i1l1210
  2065  03E1                     u130_20:
  2066  03E1                     i1l1208:
  2067  03E1  3080               	movlw	128
  2068  03E2  00A8               	movwf	??___fladd
  2069  03E3  0828               	movf	??___fladd,w
  2070  03E4  06B0               	xorwf	___fladd@signs,f
  2071  03E5                     i1l1210:
  2072  03E5  0832               	movf	___fladd@bexp,w
  2073  03E6  00A8               	movwf	??___fladd
  2074  03E7  0828               	movf	??___fladd,w
  2075  03E8  00B3               	movwf	___fladd@grs
  2076  03E9                     i1l1212:
  2077  03E9  0831               	movf	___fladd@aexp,w
  2078  03EA  00A8               	movwf	??___fladd
  2079  03EB  0828               	movf	??___fladd,w
  2080  03EC  00B2               	movwf	___fladd@bexp
  2081  03ED                     i1l1214:
  2082  03ED  0833               	movf	___fladd@grs,w
  2083  03EE  00A8               	movwf	??___fladd
  2084  03EF  0828               	movf	??___fladd,w
  2085  03F0  00B1               	movwf	___fladd@aexp
  2086  03F1                     i1l1216:
  2087  03F1  0820               	movf	___fladd@b,w
  2088  03F2  00A8               	movwf	??___fladd
  2089  03F3  0828               	movf	??___fladd,w
  2090  03F4  00B3               	movwf	___fladd@grs
  2091  03F5                     i1l1218:
  2092  03F5  0824               	movf	___fladd@a,w
  2093  03F6  00A8               	movwf	??___fladd
  2094  03F7  0828               	movf	??___fladd,w
  2095  03F8  00A0               	movwf	___fladd@b
  2096  03F9                     i1l1220:
  2097  03F9  0833               	movf	___fladd@grs,w
  2098  03FA  00A8               	movwf	??___fladd
  2099  03FB  0828               	movf	??___fladd,w
  2100  03FC  00A4               	movwf	___fladd@a
  2101  03FD                     i1l1222:
  2102  03FD  0821               	movf	___fladd@b+1,w
  2103  03FE  00A8               	movwf	??___fladd
  2104  03FF  0828               	movf	??___fladd,w
  2105  0400  00B3               	movwf	___fladd@grs
  2106  0401                     i1l1224:
  2107  0401  0825               	movf	___fladd@a+1,w
  2108  0402  00A8               	movwf	??___fladd
  2109  0403  0828               	movf	??___fladd,w
  2110  0404  00A1               	movwf	___fladd@b+1
  2111  0405                     i1l1226:
  2112  0405  0833               	movf	___fladd@grs,w
  2113  0406  00A8               	movwf	??___fladd
  2114  0407  0828               	movf	??___fladd,w
  2115  0408  00A5               	movwf	___fladd@a+1
  2116  0409                     i1l1228:
  2117  0409  0822               	movf	___fladd@b+2,w
  2118  040A  00A8               	movwf	??___fladd
  2119  040B  0828               	movf	??___fladd,w
  2120  040C  00B3               	movwf	___fladd@grs
  2121  040D                     i1l1230:
  2122  040D  0826               	movf	___fladd@a+2,w
  2123  040E  00A8               	movwf	??___fladd
  2124  040F  0828               	movf	??___fladd,w
  2125  0410  00A2               	movwf	___fladd@b+2
  2126  0411                     i1l1232:
  2127  0411  0833               	movf	___fladd@grs,w
  2128  0412  00A8               	movwf	??___fladd
  2129  0413  0828               	movf	??___fladd,w
  2130  0414  00A6               	movwf	___fladd@a+2
  2131  0415                     i1l1234:
  2132  0415  0823               	movf	___fladd@b+3,w
  2133  0416  00A8               	movwf	??___fladd
  2134  0417  0828               	movf	??___fladd,w
  2135  0418  00B3               	movwf	___fladd@grs
  2136  0419                     i1l1236:
  2137  0419  0827               	movf	___fladd@a+3,w
  2138  041A  00A8               	movwf	??___fladd
  2139  041B  0828               	movf	??___fladd,w
  2140  041C  00A3               	movwf	___fladd@b+3
  2141  041D                     i1l1238:
  2142  041D  0833               	movf	___fladd@grs,w
  2143  041E  00A8               	movwf	??___fladd
  2144  041F  0828               	movf	??___fladd,w
  2145  0420  00A7               	movwf	___fladd@a+3
  2146  0421                     i1l1240:
  2147  0421  01B3               	clrf	___fladd@grs
  2148  0422                     i1l1242:
  2149  0422  0831               	movf	___fladd@aexp,w
  2150  0423  00A8               	movwf	??___fladd
  2151  0424  01A9               	clrf	??___fladd+1
  2152  0425  0829               	movf	??___fladd+1,w
  2153  0426  00AB               	movwf	??___fladd+3
  2154  0427  0832               	movf	___fladd@bexp,w
  2155  0428  0228               	subwf	??___fladd,w
  2156  0429  00AA               	movwf	??___fladd+2
  2157  042A  1C03               	skipc
  2158  042B  03AB               	decf	??___fladd+3,f
  2159  042C  082B               	movf	??___fladd+3,w
  2160  042D  3A80               	xorlw	128
  2161  042E  00FF               	movwf	btemp+1
  2162  042F  3080               	movlw	128
  2163  0430  027F               	subwf	btemp+1,w
  2164  0431  1D03               	skipz
  2165  0432  2C35               	goto	u131_25
  2166  0433  301A               	movlw	26
  2167  0434  022A               	subwf	??___fladd+2,w
  2168  0435                     u131_25:
  2169  0435  1C03               	skipc
  2170  0436  2C38               	goto	u131_21
  2171  0437  2C39               	goto	u131_20
  2172  0438                     u131_21:
  2173  0438  2C76               	goto	i1l1258
  2174  0439                     u131_20:
  2175  0439                     i1l1244:
  2176  0439  1283               	bcf	3,5	;RP0=0, select bank0
  2177  043A  1303               	bcf	3,6	;RP1=0, select bank0
  2178  043B  0823               	movf	___fladd@b+3,w
  2179  043C  0422               	iorwf	___fladd@b+2,w
  2180  043D  0421               	iorwf	___fladd@b+1,w
  2181  043E  0420               	iorwf	___fladd@b,w
  2182  043F  1D03               	skipz
  2183  0440  2C42               	goto	u132_21
  2184  0441  2C44               	goto	u132_20
  2185  0442                     u132_21:
  2186  0442  3001               	movlw	1
  2187  0443  2C45               	goto	u133_20
  2188  0444                     u132_20:
  2189  0444  3000               	movlw	0
  2190  0445                     u133_20:
  2191  0445  00A8               	movwf	??___fladd
  2192  0446  0828               	movf	??___fladd,w
  2193  0447  00B3               	movwf	___fladd@grs
  2194  0448  3000               	movlw	0
  2195  0449  00A3               	movwf	___fladd@b+3
  2196  044A  3000               	movlw	0
  2197  044B  00A2               	movwf	___fladd@b+2
  2198  044C  3000               	movlw	0
  2199  044D  00A1               	movwf	___fladd@b+1
  2200  044E  3000               	movlw	0
  2201  044F  00A0               	movwf	___fladd@b
  2202  0450  0831               	movf	___fladd@aexp,w
  2203  0451  00A8               	movwf	??___fladd
  2204  0452  0828               	movf	??___fladd,w
  2205  0453  00B2               	movwf	___fladd@bexp
  2206  0454  2C7E               	goto	i1l384
  2207  0455                     i1l386:
  2208  0455  1C33               	btfss	___fladd@grs,0
  2209  0456  2C58               	goto	u134_21
  2210  0457  2C59               	goto	u134_20
  2211  0458                     u134_21:
  2212  0458  2C62               	goto	i1l1248
  2213  0459                     u134_20:
  2214  0459                     i1l1246:
  2215  0459  0833               	movf	___fladd@grs,w
  2216  045A  00A8               	movwf	??___fladd
  2217  045B  1003               	clrc
  2218  045C  0C28               	rrf	??___fladd,w
  2219  045D  3801               	iorlw	1
  2220  045E  00A9               	movwf	??___fladd+1
  2221  045F  0829               	movf	??___fladd+1,w
  2222  0460  00B3               	movwf	___fladd@grs
  2223  0461  2C64               	goto	i1l1250
  2224  0462                     i1l1248:
  2225  0462  1003               	clrc
  2226  0463  0CB3               	rrf	___fladd@grs,f
  2227  0464                     i1l1250:
  2228  0464  1C20               	btfss	___fladd@b,0
  2229  0465  2C67               	goto	u135_21
  2230  0466  2C68               	goto	u135_20
  2231  0467                     u135_21:
  2232  0467  2C69               	goto	i1l1254
  2233  0468                     u135_20:
  2234  0468                     i1l1252:
  2235  0468  17B3               	bsf	___fladd@grs,7
  2236  0469                     i1l1254:
  2237  0469  3001               	movlw	1
  2238  046A  00A8               	movwf	??___fladd
  2239  046B                     u136_25:
  2240  046B  0D23               	rlf	___fladd@b+3,w
  2241  046C  0CA3               	rrf	___fladd@b+3,f
  2242  046D  0CA2               	rrf	___fladd@b+2,f
  2243  046E  0CA1               	rrf	___fladd@b+1,f
  2244  046F  0CA0               	rrf	___fladd@b,f
  2245  0470  0BA8               	decfsz	??___fladd& (0+127),f
  2246  0471  2C6B               	goto	u136_25
  2247  0472                     i1l1256:
  2248  0472  3001               	movlw	1
  2249  0473  00A8               	movwf	??___fladd
  2250  0474  0828               	movf	??___fladd,w
  2251  0475  07B2               	addwf	___fladd@bexp,f
  2252  0476                     i1l1258:
  2253  0476  1283               	bcf	3,5	;RP0=0, select bank0
  2254  0477  1303               	bcf	3,6	;RP1=0, select bank0
  2255  0478  0831               	movf	___fladd@aexp,w
  2256  0479  0232               	subwf	___fladd@bexp,w
  2257  047A  1C03               	skipc
  2258  047B  2C7D               	goto	u137_21
  2259  047C  2C7E               	goto	u137_20
  2260  047D                     u137_21:
  2261  047D  2C55               	goto	i1l386
  2262  047E                     u137_20:
  2263  047E                     i1l384:
  2264  047E  1B30               	btfsc	___fladd@signs,6
  2265  047F  2C81               	goto	u138_21
  2266  0480  2C82               	goto	u138_20
  2267  0481                     u138_21:
  2268  0481  2CCD               	goto	i1l1284
  2269  0482                     u138_20:
  2270  0482                     i1l1260:
  2271  0482  0832               	movf	___fladd@bexp,w
  2272  0483  1D03               	btfss	3,2
  2273  0484  2C86               	goto	u139_21
  2274  0485  2C87               	goto	u139_20
  2275  0486                     u139_21:
  2276  0486  2C90               	goto	i1l1266
  2277  0487                     u139_20:
  2278  0487                     i1l1262:
  2279  0487  3000               	movlw	0
  2280  0488  00A3               	movwf	?___fladd+3
  2281  0489  3000               	movlw	0
  2282  048A  00A2               	movwf	?___fladd+2
  2283  048B  3000               	movlw	0
  2284  048C  00A1               	movwf	?___fladd+1
  2285  048D  3000               	movlw	0
  2286  048E  00A0               	movwf	?___fladd
  2287  048F  2DFB               	goto	i1l393
  2288  0490                     i1l1266:
  2289  0490  0824               	movf	___fladd@a,w
  2290  0491  07A0               	addwf	___fladd@b,f
  2291  0492  0825               	movf	___fladd@a+1,w
  2292  0493  1103               	clrz
  2293  0494  1803               	skipnc
  2294  0495  3E01               	addlw	1
  2295  0496  1903               	skipnz
  2296  0497  2C99               	goto	u140_21
  2297  0498  07A1               	addwf	___fladd@b+1,f
  2298  0499                     u140_21:
  2299  0499  0826               	movf	___fladd@a+2,w
  2300  049A  1103               	clrz
  2301  049B  1803               	skipnc
  2302  049C  3E01               	addlw	1
  2303  049D  1903               	skipnz
  2304  049E  2CA0               	goto	u140_22
  2305  049F  07A2               	addwf	___fladd@b+2,f
  2306  04A0                     u140_22:
  2307  04A0  0827               	movf	___fladd@a+3,w
  2308  04A1  1103               	clrz
  2309  04A2  1803               	skipnc
  2310  04A3  3E01               	addlw	1
  2311  04A4  1903               	skipnz
  2312  04A5  2CA7               	goto	u140_23
  2313  04A6  07A3               	addwf	___fladd@b+3,f
  2314  04A7                     u140_23:
  2315  04A7                     i1l1268:
  2316  04A7  1C23               	btfss	___fladd@b+3,0
  2317  04A8  2CAA               	goto	u141_21
  2318  04A9  2CAB               	goto	u141_20
  2319  04AA                     u141_21:
  2320  04AA  2D81               	goto	i1l1318
  2321  04AB                     u141_20:
  2322  04AB                     i1l1270:
  2323  04AB  1C33               	btfss	___fladd@grs,0
  2324  04AC  2CAE               	goto	u142_21
  2325  04AD  2CAF               	goto	u142_20
  2326  04AE                     u142_21:
  2327  04AE  2CB8               	goto	i1l1274
  2328  04AF                     u142_20:
  2329  04AF                     i1l1272:
  2330  04AF  0833               	movf	___fladd@grs,w
  2331  04B0  00A8               	movwf	??___fladd
  2332  04B1  1003               	clrc
  2333  04B2  0C28               	rrf	??___fladd,w
  2334  04B3  3801               	iorlw	1
  2335  04B4  00A9               	movwf	??___fladd+1
  2336  04B5  0829               	movf	??___fladd+1,w
  2337  04B6  00B3               	movwf	___fladd@grs
  2338  04B7  2CBA               	goto	i1l1276
  2339  04B8                     i1l1274:
  2340  04B8  1003               	clrc
  2341  04B9  0CB3               	rrf	___fladd@grs,f
  2342  04BA                     i1l1276:
  2343  04BA  1C20               	btfss	___fladd@b,0
  2344  04BB  2CBD               	goto	u143_21
  2345  04BC  2CBE               	goto	u143_20
  2346  04BD                     u143_21:
  2347  04BD  2CBF               	goto	i1l1280
  2348  04BE                     u143_20:
  2349  04BE                     i1l1278:
  2350  04BE  17B3               	bsf	___fladd@grs,7
  2351  04BF                     i1l1280:
  2352  04BF  3001               	movlw	1
  2353  04C0  00A8               	movwf	??___fladd
  2354  04C1                     u144_25:
  2355  04C1  0D23               	rlf	___fladd@b+3,w
  2356  04C2  0CA3               	rrf	___fladd@b+3,f
  2357  04C3  0CA2               	rrf	___fladd@b+2,f
  2358  04C4  0CA1               	rrf	___fladd@b+1,f
  2359  04C5  0CA0               	rrf	___fladd@b,f
  2360  04C6  0BA8               	decfsz	??___fladd& (0+127),f
  2361  04C7  2CC1               	goto	u144_25
  2362  04C8                     i1l1282:
  2363  04C8  3001               	movlw	1
  2364  04C9  00A8               	movwf	??___fladd
  2365  04CA  0828               	movf	??___fladd,w
  2366  04CB  07B2               	addwf	___fladd@bexp,f
  2367  04CC  2D81               	goto	i1l1318
  2368  04CD                     i1l1284:
  2369  04CD  0823               	movf	___fladd@b+3,w
  2370  04CE  3A80               	xorlw	128
  2371  04CF  00FF               	movwf	btemp+1
  2372  04D0  0827               	movf	___fladd@a+3,w
  2373  04D1  3A80               	xorlw	128
  2374  04D2  027F               	subwf	btemp+1,w
  2375  04D3  1D03               	skipz
  2376  04D4  2CDF               	goto	u145_23
  2377  04D5  0826               	movf	___fladd@a+2,w
  2378  04D6  0222               	subwf	___fladd@b+2,w
  2379  04D7  1D03               	skipz
  2380  04D8  2CDF               	goto	u145_23
  2381  04D9  0825               	movf	___fladd@a+1,w
  2382  04DA  0221               	subwf	___fladd@b+1,w
  2383  04DB  1D03               	skipz
  2384  04DC  2CDF               	goto	u145_23
  2385  04DD  0824               	movf	___fladd@a,w
  2386  04DE  0220               	subwf	___fladd@b,w
  2387  04DF                     u145_23:
  2388  04DF  1803               	skipnc
  2389  04E0  2CE2               	goto	u145_21
  2390  04E1  2CE3               	goto	u145_20
  2391  04E2                     u145_21:
  2392  04E2  2D3B               	goto	i1l1294
  2393  04E3                     u145_20:
  2394  04E3                     i1l1286:
  2395  04E3  30FF               	movlw	255
  2396  04E4  00A8               	movwf	??___fladd
  2397  04E5  30FF               	movlw	255
  2398  04E6  00A9               	movwf	??___fladd+1
  2399  04E7  30FF               	movlw	255
  2400  04E8  00AA               	movwf	??___fladd+2
  2401  04E9  30FF               	movlw	255
  2402  04EA  00AB               	movwf	??___fladd+3
  2403  04EB  0824               	movf	___fladd@a,w
  2404  04EC  00AC               	movwf	??___fladd+4
  2405  04ED  0825               	movf	___fladd@a+1,w
  2406  04EE  00AD               	movwf	??___fladd+5
  2407  04EF  0826               	movf	___fladd@a+2,w
  2408  04F0  00AE               	movwf	??___fladd+6
  2409  04F1  0827               	movf	___fladd@a+3,w
  2410  04F2  00AF               	movwf	??___fladd+7
  2411  04F3  0820               	movf	___fladd@b,w
  2412  04F4  02AC               	subwf	??___fladd+4,f
  2413  04F5  0821               	movf	___fladd@b+1,w
  2414  04F6  1C03               	skipc
  2415  04F7  0F21               	incfsz	___fladd@b+1,w
  2416  04F8  2CFA               	goto	u146_21
  2417  04F9  2CFB               	goto	u146_22
  2418  04FA                     u146_21:
  2419  04FA  02AD               	subwf	??___fladd+5,f
  2420  04FB                     u146_22:
  2421  04FB  0822               	movf	___fladd@b+2,w
  2422  04FC  1C03               	skipc
  2423  04FD  0F22               	incfsz	___fladd@b+2,w
  2424  04FE  2D00               	goto	u146_23
  2425  04FF  2D01               	goto	u146_24
  2426  0500                     u146_23:
  2427  0500  02AE               	subwf	??___fladd+6,f
  2428  0501                     u146_24:
  2429  0501  0823               	movf	___fladd@b+3,w
  2430  0502  1C03               	skipc
  2431  0503  0F23               	incfsz	___fladd@b+3,w
  2432  0504  2D06               	goto	u146_25
  2433  0505  2D07               	goto	u146_26
  2434  0506                     u146_25:
  2435  0506  02AF               	subwf	??___fladd+7,f
  2436  0507                     u146_26:
  2437  0507  082C               	movf	??___fladd+4,w
  2438  0508  07A8               	addwf	??___fladd,f
  2439  0509  082D               	movf	??___fladd+5,w
  2440  050A  1803               	skipnc
  2441  050B  0F2D               	incfsz	??___fladd+5,w
  2442  050C  2D0E               	goto	u147_20
  2443  050D  2D0F               	goto	u147_21
  2444  050E                     u147_20:
  2445  050E  07A9               	addwf	??___fladd+1,f
  2446  050F                     u147_21:
  2447  050F  082E               	movf	??___fladd+6,w
  2448  0510  1803               	skipnc
  2449  0511  0F2E               	incfsz	??___fladd+6,w
  2450  0512  2D14               	goto	u147_22
  2451  0513  2D15               	goto	u147_23
  2452  0514                     u147_22:
  2453  0514  07AA               	addwf	??___fladd+2,f
  2454  0515                     u147_23:
  2455  0515  082F               	movf	??___fladd+7,w
  2456  0516  1803               	skipnc
  2457  0517  0A2F               	incf	??___fladd+7,w
  2458  0518  07AB               	addwf	??___fladd+3,f
  2459  0519  082B               	movf	??___fladd+3,w
  2460  051A  00A3               	movwf	___fladd@b+3
  2461  051B  082A               	movf	??___fladd+2,w
  2462  051C  00A2               	movwf	___fladd@b+2
  2463  051D  0829               	movf	??___fladd+1,w
  2464  051E  00A1               	movwf	___fladd@b+1
  2465  051F  0828               	movf	??___fladd,w
  2466  0520  00A0               	movwf	___fladd@b
  2467  0521                     i1l1288:
  2468  0521  3080               	movlw	128
  2469  0522  00A8               	movwf	??___fladd
  2470  0523  0828               	movf	??___fladd,w
  2471  0524  06B0               	xorwf	___fladd@signs,f
  2472  0525  09B3               	comf	___fladd@grs,f
  2473  0526  0AB3               	incf	___fladd@grs,f
  2474  0527                     i1l1290:
  2475  0527  0833               	movf	___fladd@grs,w
  2476  0528  1D03               	btfss	3,2
  2477  0529  2D2B               	goto	u148_21
  2478  052A  2D2C               	goto	u148_20
  2479  052B                     u148_21:
  2480  052B  2D49               	goto	i1l401
  2481  052C                     u148_20:
  2482  052C                     i1l1292:
  2483  052C  3001               	movlw	1
  2484  052D  07A0               	addwf	___fladd@b,f
  2485  052E  3000               	movlw	0
  2486  052F  1803               	skipnc
  2487  0530  3001               	movlw	1
  2488  0531  07A1               	addwf	___fladd@b+1,f
  2489  0532  3000               	movlw	0
  2490  0533  1803               	skipnc
  2491  0534  3001               	movlw	1
  2492  0535  07A2               	addwf	___fladd@b+2,f
  2493  0536  3000               	movlw	0
  2494  0537  1803               	skipnc
  2495  0538  3001               	movlw	1
  2496  0539  07A3               	addwf	___fladd@b+3,f
  2497  053A  2D49               	goto	i1l401
  2498  053B                     i1l1294:
  2499  053B  0824               	movf	___fladd@a,w
  2500  053C  02A0               	subwf	___fladd@b,f
  2501  053D  0825               	movf	___fladd@a+1,w
  2502  053E  1C03               	skipc
  2503  053F  0F25               	incfsz	___fladd@a+1,w
  2504  0540  02A1               	subwf	___fladd@b+1,f
  2505  0541  0826               	movf	___fladd@a+2,w
  2506  0542  1C03               	skipc
  2507  0543  0F26               	incfsz	___fladd@a+2,w
  2508  0544  02A2               	subwf	___fladd@b+2,f
  2509  0545  0827               	movf	___fladd@a+3,w
  2510  0546  1C03               	skipc
  2511  0547  0F27               	incfsz	___fladd@a+3,w
  2512  0548  02A3               	subwf	___fladd@b+3,f
  2513  0549                     i1l401:
  2514  0549  0823               	movf	___fladd@b+3,w
  2515  054A  0422               	iorwf	___fladd@b+2,w
  2516  054B  0421               	iorwf	___fladd@b+1,w
  2517  054C  0420               	iorwf	___fladd@b,w
  2518  054D  1D03               	skipz
  2519  054E  2D50               	goto	u149_21
  2520  054F  2D51               	goto	u149_20
  2521  0550                     u149_21:
  2522  0550  2D7D               	goto	i1l1316
  2523  0551                     u149_20:
  2524  0551                     i1l1296:
  2525  0551  0833               	movf	___fladd@grs,w
  2526  0552  1D03               	btfss	3,2
  2527  0553  2D55               	goto	u150_21
  2528  0554  2D56               	goto	u150_20
  2529  0555                     u150_21:
  2530  0555  2D7D               	goto	i1l1316
  2531  0556                     u150_20:
  2532  0556                     i1l1298:
  2533  0556  3000               	movlw	0
  2534  0557  00A3               	movwf	?___fladd+3
  2535  0558  3000               	movlw	0
  2536  0559  00A2               	movwf	?___fladd+2
  2537  055A  3000               	movlw	0
  2538  055B  00A1               	movwf	?___fladd+1
  2539  055C  3000               	movlw	0
  2540  055D  00A0               	movwf	?___fladd
  2541  055E  2DFB               	goto	i1l393
  2542  055F                     i1l1302:
  2543  055F  3001               	movlw	1
  2544  0560  00A8               	movwf	??___fladd
  2545  0561                     u151_25:
  2546  0561  1003               	clrc
  2547  0562  0DA0               	rlf	___fladd@b,f
  2548  0563  0DA1               	rlf	___fladd@b+1,f
  2549  0564  0DA2               	rlf	___fladd@b+2,f
  2550  0565  0DA3               	rlf	___fladd@b+3,f
  2551  0566  0BA8               	decfsz	??___fladd,f
  2552  0567  2D61               	goto	u151_25
  2553  0568                     i1l1304:
  2554  0568  1FB3               	btfss	___fladd@grs,7
  2555  0569  2D6B               	goto	u152_21
  2556  056A  2D6C               	goto	u152_20
  2557  056B                     u152_21:
  2558  056B  2D6D               	goto	i1l405
  2559  056C                     u152_20:
  2560  056C                     i1l1306:
  2561  056C  1420               	bsf	___fladd@b,0
  2562  056D                     i1l405:
  2563  056D  1C33               	btfss	___fladd@grs,0
  2564  056E  2D70               	goto	u153_21
  2565  056F  2D71               	goto	u153_20
  2566  0570                     u153_21:
  2567  0570  2D74               	goto	i1l1310
  2568  0571                     u153_20:
  2569  0571                     i1l1308:
  2570  0571  1403               	setc
  2571  0572  0DB3               	rlf	___fladd@grs,f
  2572  0573  2D76               	goto	i1l1312
  2573  0574                     i1l1310:
  2574  0574  1003               	clrc
  2575  0575  0DB3               	rlf	___fladd@grs,f
  2576  0576                     i1l1312:
  2577  0576  0832               	movf	___fladd@bexp,w
  2578  0577  1903               	btfsc	3,2
  2579  0578  2D7A               	goto	u154_21
  2580  0579  2D7B               	goto	u154_20
  2581  057A                     u154_21:
  2582  057A  2D7D               	goto	i1l1316
  2583  057B                     u154_20:
  2584  057B                     i1l1314:
  2585  057B  3001               	movlw	1
  2586  057C  02B2               	subwf	___fladd@bexp,f
  2587  057D                     i1l1316:
  2588  057D  1FA2               	btfss	___fladd@b+2,7
  2589  057E  2D80               	goto	u155_21
  2590  057F  2D81               	goto	u155_20
  2591  0580                     u155_21:
  2592  0580  2D5F               	goto	i1l1302
  2593  0581                     u155_20:
  2594  0581                     i1l1318:
  2595  0581  01B1               	clrf	___fladd@aexp
  2596  0582                     i1l1320:
  2597  0582  1FB3               	btfss	___fladd@grs,7
  2598  0583  2D85               	goto	u156_21
  2599  0584  2D86               	goto	u156_20
  2600  0585                     u156_21:
  2601  0585  2D94               	goto	i1l1328
  2602  0586                     u156_20:
  2603  0586                     i1l1322:
  2604  0586  0833               	movf	___fladd@grs,w
  2605  0587  397F               	andlw	127
  2606  0588  1903               	btfsc	3,2
  2607  0589  2D8B               	goto	u157_21
  2608  058A  2D8C               	goto	u157_20
  2609  058B                     u157_21:
  2610  058B  2D8F               	goto	i1l411
  2611  058C                     u157_20:
  2612  058C                     i1l1324:
  2613  058C  01B1               	clrf	___fladd@aexp
  2614  058D  0AB1               	incf	___fladd@aexp,f
  2615  058E  2D94               	goto	i1l1328
  2616  058F                     i1l411:
  2617  058F  1C20               	btfss	___fladd@b,0
  2618  0590  2D92               	goto	u158_21
  2619  0591  2D93               	goto	u158_20
  2620  0592                     u158_21:
  2621  0592  2D94               	goto	i1l1328
  2622  0593                     u158_20:
  2623  0593  2D8C               	goto	i1l1324
  2624  0594                     i1l1328:
  2625  0594  0831               	movf	___fladd@aexp,w
  2626  0595  1903               	btfsc	3,2
  2627  0596  2D98               	goto	u159_21
  2628  0597  2D99               	goto	u159_20
  2629  0598                     u159_21:
  2630  0598  2DCD               	goto	i1l414
  2631  0599                     u159_20:
  2632  0599                     i1l1330:
  2633  0599  3001               	movlw	1
  2634  059A  07A0               	addwf	___fladd@b,f
  2635  059B  3000               	movlw	0
  2636  059C  1803               	skipnc
  2637  059D  3001               	movlw	1
  2638  059E  07A1               	addwf	___fladd@b+1,f
  2639  059F  3000               	movlw	0
  2640  05A0  1803               	skipnc
  2641  05A1  3001               	movlw	1
  2642  05A2  07A2               	addwf	___fladd@b+2,f
  2643  05A3  3000               	movlw	0
  2644  05A4  1803               	skipnc
  2645  05A5  3001               	movlw	1
  2646  05A6  07A3               	addwf	___fladd@b+3,f
  2647  05A7                     i1l1332:
  2648  05A7  1C23               	btfss	___fladd@b+3,0
  2649  05A8  2DAA               	goto	u160_21
  2650  05A9  2DAB               	goto	u160_20
  2651  05AA                     u160_21:
  2652  05AA  2DCD               	goto	i1l414
  2653  05AB                     u160_20:
  2654  05AB                     i1l1334:
  2655  05AB  0820               	movf	___fladd@b,w
  2656  05AC  00A8               	movwf	??___fladd
  2657  05AD  0821               	movf	___fladd@b+1,w
  2658  05AE  00A9               	movwf	??___fladd+1
  2659  05AF  0822               	movf	___fladd@b+2,w
  2660  05B0  00AA               	movwf	??___fladd+2
  2661  05B1  0823               	movf	___fladd@b+3,w
  2662  05B2  00AB               	movwf	??___fladd+3
  2663  05B3  3001               	movlw	1
  2664  05B4  00AC               	movwf	??___fladd+4
  2665  05B5                     u161_25:
  2666  05B5  0D2B               	rlf	??___fladd+3,w
  2667  05B6  0CAB               	rrf	??___fladd+3,f
  2668  05B7  0CAA               	rrf	??___fladd+2,f
  2669  05B8  0CA9               	rrf	??___fladd+1,f
  2670  05B9  0CA8               	rrf	??___fladd,f
  2671  05BA                     u161_20:
  2672  05BA  0BAC               	decfsz	??___fladd+4,f
  2673  05BB  2DB5               	goto	u161_25
  2674  05BC  082B               	movf	??___fladd+3,w
  2675  05BD  00A3               	movwf	___fladd@b+3
  2676  05BE  082A               	movf	??___fladd+2,w
  2677  05BF  00A2               	movwf	___fladd@b+2
  2678  05C0  0829               	movf	??___fladd+1,w
  2679  05C1  00A1               	movwf	___fladd@b+1
  2680  05C2  0828               	movf	??___fladd,w
  2681  05C3  00A0               	movwf	___fladd@b
  2682  05C4  0A32               	incf	___fladd@bexp,w
  2683  05C5  1903               	btfsc	3,2
  2684  05C6  2DC8               	goto	u162_21
  2685  05C7  2DC9               	goto	u162_20
  2686  05C8                     u162_21:
  2687  05C8  2DCD               	goto	i1l414
  2688  05C9                     u162_20:
  2689  05C9                     i1l1336:
  2690  05C9  3001               	movlw	1
  2691  05CA  00A8               	movwf	??___fladd
  2692  05CB  0828               	movf	??___fladd,w
  2693  05CC  07B2               	addwf	___fladd@bexp,f
  2694  05CD                     i1l414:
  2695  05CD  0A32               	incf	___fladd@bexp,w
  2696  05CE  1903               	btfsc	3,2
  2697  05CF  2DD1               	goto	u163_21
  2698  05D0  2DD2               	goto	u163_20
  2699  05D1                     u163_21:
  2700  05D1  2DD7               	goto	i1l1340
  2701  05D2                     u163_20:
  2702  05D2                     i1l1338:
  2703  05D2  0832               	movf	___fladd@bexp,w
  2704  05D3  1D03               	btfss	3,2
  2705  05D4  2DD6               	goto	u164_21
  2706  05D5  2DD7               	goto	u164_20
  2707  05D6                     u164_21:
  2708  05D6  2DE5               	goto	i1l1346
  2709  05D7                     u164_20:
  2710  05D7                     i1l1340:
  2711  05D7  3000               	movlw	0
  2712  05D8  00A3               	movwf	___fladd@b+3
  2713  05D9  3000               	movlw	0
  2714  05DA  00A2               	movwf	___fladd@b+2
  2715  05DB  3000               	movlw	0
  2716  05DC  00A1               	movwf	___fladd@b+1
  2717  05DD  3000               	movlw	0
  2718  05DE  00A0               	movwf	___fladd@b
  2719  05DF                     i1l1342:
  2720  05DF  0832               	movf	___fladd@bexp,w
  2721  05E0  1D03               	btfss	3,2
  2722  05E1  2DE3               	goto	u165_21
  2723  05E2  2DE4               	goto	u165_20
  2724  05E3                     u165_21:
  2725  05E3  2DE5               	goto	i1l1346
  2726  05E4                     u165_20:
  2727  05E4                     i1l1344:
  2728  05E4  01B0               	clrf	___fladd@signs
  2729  05E5                     i1l1346:
  2730  05E5  1C32               	btfss	___fladd@bexp,0
  2731  05E6  2DE8               	goto	u166_21
  2732  05E7  2DE9               	goto	u166_20
  2733  05E8                     u166_21:
  2734  05E8  2DEB               	goto	i1l1350
  2735  05E9                     u166_20:
  2736  05E9                     i1l1348:
  2737  05E9  17A2               	bsf	___fladd@b+2,7
  2738  05EA  2DEF               	goto	i1l422
  2739  05EB                     i1l1350:
  2740  05EB  307F               	movlw	127
  2741  05EC  00A8               	movwf	??___fladd
  2742  05ED  0828               	movf	??___fladd,w
  2743  05EE  05A2               	andwf	___fladd@b+2,f
  2744  05EF                     i1l422:
  2745  05EF  0832               	movf	___fladd@bexp,w
  2746  05F0  00A8               	movwf	??___fladd
  2747  05F1  1003               	clrc
  2748  05F2  0C28               	rrf	??___fladd,w
  2749  05F3  00A9               	movwf	??___fladd+1
  2750  05F4  0829               	movf	??___fladd+1,w
  2751  05F5  00A3               	movwf	___fladd@b+3
  2752  05F6                     i1l1352:
  2753  05F6  1FB0               	btfss	___fladd@signs,7
  2754  05F7  2DF9               	goto	u167_21
  2755  05F8  2DFA               	goto	u167_20
  2756  05F9                     u167_21:
  2757  05F9  2DFB               	goto	i1l423
  2758  05FA                     u167_20:
  2759  05FA                     i1l1354:
  2760  05FA  17A3               	bsf	___fladd@b+3,7
  2761  05FB                     i1l423:
  2762  05FB                     i1l393:
  2763  05FB  0008               	return
  2764  05FC                     __end_of___fladd:
  2765                           
  2766                           	psect	text8
  2767  0025                     __ptext8:	
  2768 ;; *************** function ___flmul *****************
  2769 ;; Defined at:
  2770 ;;		line 8 in file "C:\Program Files\Microchip\xc8\v2.32\pic\sources\c90\common\sprcmul.c"
  2771 ;; Parameters:    Size  Location     Type
  2772 ;;  b               4    9[BANK0 ] unsigned char 
  2773 ;;  a               4   13[BANK0 ] unsigned char 
  2774 ;; Auto vars:     Size  Location     Type
  2775 ;;  prod            4   29[BANK0 ] struct .
  2776 ;;  grs             4   23[BANK0 ] unsigned long 
  2777 ;;  temp            2   33[BANK0 ] struct .
  2778 ;;  bexp            1   28[BANK0 ] unsigned char 
  2779 ;;  aexp            1   27[BANK0 ] unsigned char 
  2780 ;;  sign            1   22[BANK0 ] unsigned char 
  2781 ;; Return value:  Size  Location     Type
  2782 ;;                  4    9[BANK0 ] unsigned char 
  2783 ;; Registers used:
  2784 ;;		wreg, status,2, status,0, btemp+1, pclath, cstack
  2785 ;; Tracked objects:
  2786 ;;		On entry : 0/0
  2787 ;;		On exit  : 0/0
  2788 ;;		Unchanged: 0/0
  2789 ;; Data sizes:     COMMON   BANK0   BANK1
  2790 ;;      Params:         0       8       0
  2791 ;;      Locals:         0      13       0
  2792 ;;      Temps:          0       5       0
  2793 ;;      Totals:         0      26       0
  2794 ;;Total ram usage:       26 bytes
  2795 ;; Hardware stack levels used: 1
  2796 ;; Hardware stack levels required when called: 1
  2797 ;; This function calls:
  2798 ;;		__Umul8_16
  2799 ;; This function is called by:
  2800 ;;		_zero
  2801 ;;		_policz_przyspieszenie
  2802 ;;		_konwersja_na_bity
  2803 ;; This function uses a non-reentrant model
  2804 ;;
  2805                           
  2806                           
  2807                           ;psect for function ___flmul
  2808  0025                     ___flmul:
  2809  0025                     i1l1412:	
  2810                           ;incstack = 0
  2811                           ; Regs used in ___flmul: [wreg+status,2+status,0+btemp+1+pclath+cstack]
  2812                           
  2813  0025  1283               	bcf	3,5	;RP0=0, select bank0
  2814  0026  1303               	bcf	3,6	;RP1=0, select bank0
  2815  0027  082C               	movf	___flmul@b+3,w
  2816  0028  3980               	andlw	128
  2817  0029  00B1               	movwf	??___flmul
  2818  002A  0831               	movf	??___flmul,w
  2819  002B  00B6               	movwf	___flmul@sign
  2820  002C                     i1l1414:
  2821  002C  082C               	movf	___flmul@b+3,w
  2822  002D  00B1               	movwf	??___flmul
  2823  002E  0731               	addwf	??___flmul,w
  2824  002F  00B2               	movwf	??___flmul+1
  2825  0030  0832               	movf	??___flmul+1,w
  2826  0031  00BC               	movwf	___flmul@bexp
  2827  0032                     i1l1416:
  2828  0032  1FAB               	btfss	___flmul@b+2,7
  2829  0033  2835               	goto	u181_21
  2830  0034  2836               	goto	u181_20
  2831  0035                     u181_21:
  2832  0035  2837               	goto	i1l1420
  2833  0036                     u181_20:
  2834  0036                     i1l1418:
  2835  0036  143C               	bsf	___flmul@bexp,0
  2836  0037                     i1l1420:
  2837  0037  083C               	movf	___flmul@bexp,w
  2838  0038  1903               	btfsc	3,2
  2839  0039  283B               	goto	u182_21
  2840  003A  283C               	goto	u182_20
  2841  003B                     u182_21:
  2842  003B  284B               	goto	i1l1428
  2843  003C                     u182_20:
  2844  003C                     i1l1422:
  2845  003C  0A3C               	incf	___flmul@bexp,w
  2846  003D  1D03               	btfss	3,2
  2847  003E  2840               	goto	u183_21
  2848  003F  2841               	goto	u183_20
  2849  0040                     u183_21:
  2850  0040  2849               	goto	i1l1426
  2851  0041                     u183_20:
  2852  0041                     i1l1424:
  2853  0041  3000               	movlw	0
  2854  0042  00AC               	movwf	___flmul@b+3
  2855  0043  3000               	movlw	0
  2856  0044  00AB               	movwf	___flmul@b+2
  2857  0045  3000               	movlw	0
  2858  0046  00AA               	movwf	___flmul@b+1
  2859  0047  3000               	movlw	0
  2860  0048  00A9               	movwf	___flmul@b
  2861  0049                     i1l1426:
  2862  0049  17AB               	bsf	___flmul@b+2,7
  2863  004A  2853               	goto	i1l1430
  2864  004B                     i1l1428:
  2865  004B  3000               	movlw	0
  2866  004C  00AC               	movwf	___flmul@b+3
  2867  004D  3000               	movlw	0
  2868  004E  00AB               	movwf	___flmul@b+2
  2869  004F  3000               	movlw	0
  2870  0050  00AA               	movwf	___flmul@b+1
  2871  0051  3000               	movlw	0
  2872  0052  00A9               	movwf	___flmul@b
  2873  0053                     i1l1430:
  2874  0053  0830               	movf	___flmul@a+3,w
  2875  0054  3980               	andlw	128
  2876  0055  00B1               	movwf	??___flmul
  2877  0056  0831               	movf	??___flmul,w
  2878  0057  06B6               	xorwf	___flmul@sign,f
  2879  0058                     i1l1432:
  2880  0058  0830               	movf	___flmul@a+3,w
  2881  0059  00B1               	movwf	??___flmul
  2882  005A  0731               	addwf	??___flmul,w
  2883  005B  00B2               	movwf	??___flmul+1
  2884  005C  0832               	movf	??___flmul+1,w
  2885  005D  00BB               	movwf	___flmul@aexp
  2886  005E                     i1l1434:
  2887  005E  1FAF               	btfss	___flmul@a+2,7
  2888  005F  2861               	goto	u184_21
  2889  0060  2862               	goto	u184_20
  2890  0061                     u184_21:
  2891  0061  2863               	goto	i1l1438
  2892  0062                     u184_20:
  2893  0062                     i1l1436:
  2894  0062  143B               	bsf	___flmul@aexp,0
  2895  0063                     i1l1438:
  2896  0063  083B               	movf	___flmul@aexp,w
  2897  0064  1903               	btfsc	3,2
  2898  0065  2867               	goto	u185_21
  2899  0066  2868               	goto	u185_20
  2900  0067                     u185_21:
  2901  0067  2877               	goto	i1l1446
  2902  0068                     u185_20:
  2903  0068                     i1l1440:
  2904  0068  0A3B               	incf	___flmul@aexp,w
  2905  0069  1D03               	btfss	3,2
  2906  006A  286C               	goto	u186_21
  2907  006B  286D               	goto	u186_20
  2908  006C                     u186_21:
  2909  006C  2875               	goto	i1l1444
  2910  006D                     u186_20:
  2911  006D                     i1l1442:
  2912  006D  3000               	movlw	0
  2913  006E  00B0               	movwf	___flmul@a+3
  2914  006F  3000               	movlw	0
  2915  0070  00AF               	movwf	___flmul@a+2
  2916  0071  3000               	movlw	0
  2917  0072  00AE               	movwf	___flmul@a+1
  2918  0073  3000               	movlw	0
  2919  0074  00AD               	movwf	___flmul@a
  2920  0075                     i1l1444:
  2921  0075  17AF               	bsf	___flmul@a+2,7
  2922  0076  287F               	goto	i1l1448
  2923  0077                     i1l1446:
  2924  0077  3000               	movlw	0
  2925  0078  00B0               	movwf	___flmul@a+3
  2926  0079  3000               	movlw	0
  2927  007A  00AF               	movwf	___flmul@a+2
  2928  007B  3000               	movlw	0
  2929  007C  00AE               	movwf	___flmul@a+1
  2930  007D  3000               	movlw	0
  2931  007E  00AD               	movwf	___flmul@a
  2932  007F                     i1l1448:
  2933  007F  083B               	movf	___flmul@aexp,w
  2934  0080  1903               	btfsc	3,2
  2935  0081  2883               	goto	u187_21
  2936  0082  2884               	goto	u187_20
  2937  0083                     u187_21:
  2938  0083  2889               	goto	i1l1452
  2939  0084                     u187_20:
  2940  0084                     i1l1450:
  2941  0084  083C               	movf	___flmul@bexp,w
  2942  0085  1D03               	btfss	3,2
  2943  0086  2888               	goto	u188_21
  2944  0087  2889               	goto	u188_20
  2945  0088                     u188_21:
  2946  0088  2892               	goto	i1l1456
  2947  0089                     u188_20:
  2948  0089                     i1l1452:
  2949  0089  3000               	movlw	0
  2950  008A  00AC               	movwf	?___flmul+3
  2951  008B  3000               	movlw	0
  2952  008C  00AB               	movwf	?___flmul+2
  2953  008D  3000               	movlw	0
  2954  008E  00AA               	movwf	?___flmul+1
  2955  008F  3000               	movlw	0
  2956  0090  00A9               	movwf	?___flmul
  2957  0091  2B73               	goto	i1l476
  2958  0092                     i1l1456:
  2959  0092  0829               	movf	___flmul@b,w
  2960  0093  00B1               	movwf	??___flmul
  2961  0094  0831               	movf	??___flmul,w
  2962  0095  00A0               	movwf	__Umul8_16@multiplicand
  2963  0096  082F               	movf	___flmul@a+2,w
  2964  0097  158A  2662  118A   	fcall	__Umul8_16
  2965  009A  1283               	bcf	3,5	;RP0=0, select bank0
  2966  009B  1303               	bcf	3,6	;RP1=0, select bank0
  2967  009C  0821               	movf	?__Umul8_16+1,w
  2968  009D  00C2               	movwf	___flmul@temp+1
  2969  009E  0820               	movf	?__Umul8_16,w
  2970  009F  00C1               	movwf	___flmul@temp
  2971  00A0                     i1l1458:
  2972  00A0  0841               	movf	___flmul@temp,w
  2973  00A1  00B1               	movwf	??___flmul
  2974  00A2  01B2               	clrf	??___flmul+1
  2975  00A3  01B3               	clrf	??___flmul+2
  2976  00A4  01B4               	clrf	??___flmul+3
  2977  00A5  0834               	movf	??___flmul+3,w
  2978  00A6  00BA               	movwf	___flmul@grs+3
  2979  00A7  0833               	movf	??___flmul+2,w
  2980  00A8  00B9               	movwf	___flmul@grs+2
  2981  00A9  0832               	movf	??___flmul+1,w
  2982  00AA  00B8               	movwf	___flmul@grs+1
  2983  00AB  0831               	movf	??___flmul,w
  2984  00AC  00B7               	movwf	___flmul@grs
  2985  00AD                     i1l1460:
  2986  00AD  0842               	movf	___flmul@temp+1,w
  2987  00AE  00B1               	movwf	??___flmul
  2988  00AF  01B2               	clrf	??___flmul+1
  2989  00B0  01B3               	clrf	??___flmul+2
  2990  00B1  01B4               	clrf	??___flmul+3
  2991  00B2  0834               	movf	??___flmul+3,w
  2992  00B3  00C0               	movwf	___flmul@prod+3
  2993  00B4  0833               	movf	??___flmul+2,w
  2994  00B5  00BF               	movwf	___flmul@prod+2
  2995  00B6  0832               	movf	??___flmul+1,w
  2996  00B7  00BE               	movwf	___flmul@prod+1
  2997  00B8  0831               	movf	??___flmul,w
  2998  00B9  00BD               	movwf	___flmul@prod
  2999  00BA  082A               	movf	___flmul@b+1,w
  3000  00BB  00B1               	movwf	??___flmul
  3001  00BC  0831               	movf	??___flmul,w
  3002  00BD  00A0               	movwf	__Umul8_16@multiplicand
  3003  00BE  082E               	movf	___flmul@a+1,w
  3004  00BF  158A  2662  118A   	fcall	__Umul8_16
  3005  00C2  1283               	bcf	3,5	;RP0=0, select bank0
  3006  00C3  1303               	bcf	3,6	;RP1=0, select bank0
  3007  00C4  0821               	movf	?__Umul8_16+1,w
  3008  00C5  00C2               	movwf	___flmul@temp+1
  3009  00C6  0820               	movf	?__Umul8_16,w
  3010  00C7  00C1               	movwf	___flmul@temp
  3011  00C8                     i1l1462:
  3012  00C8  0841               	movf	___flmul@temp,w
  3013  00C9  00B1               	movwf	??___flmul
  3014  00CA  01B2               	clrf	??___flmul+1
  3015  00CB  01B3               	clrf	??___flmul+2
  3016  00CC  01B4               	clrf	??___flmul+3
  3017  00CD  0831               	movf	??___flmul,w
  3018  00CE  07B7               	addwf	___flmul@grs,f
  3019  00CF  0832               	movf	??___flmul+1,w
  3020  00D0  1103               	clrz
  3021  00D1  1803               	skipnc
  3022  00D2  3E01               	addlw	1
  3023  00D3  1903               	skipnz
  3024  00D4  28D6               	goto	u189_21
  3025  00D5  07B8               	addwf	___flmul@grs+1,f
  3026  00D6                     u189_21:
  3027  00D6  0833               	movf	??___flmul+2,w
  3028  00D7  1103               	clrz
  3029  00D8  1803               	skipnc
  3030  00D9  3E01               	addlw	1
  3031  00DA  1903               	skipnz
  3032  00DB  28DD               	goto	u189_22
  3033  00DC  07B9               	addwf	___flmul@grs+2,f
  3034  00DD                     u189_22:
  3035  00DD  0834               	movf	??___flmul+3,w
  3036  00DE  1103               	clrz
  3037  00DF  1803               	skipnc
  3038  00E0  3E01               	addlw	1
  3039  00E1  1903               	skipnz
  3040  00E2  28E4               	goto	u189_23
  3041  00E3  07BA               	addwf	___flmul@grs+3,f
  3042  00E4                     u189_23:
  3043  00E4                     i1l1464:
  3044  00E4  0842               	movf	___flmul@temp+1,w
  3045  00E5  00B1               	movwf	??___flmul
  3046  00E6  01B2               	clrf	??___flmul+1
  3047  00E7  01B3               	clrf	??___flmul+2
  3048  00E8  01B4               	clrf	??___flmul+3
  3049  00E9  0831               	movf	??___flmul,w
  3050  00EA  07BD               	addwf	___flmul@prod,f
  3051  00EB  0832               	movf	??___flmul+1,w
  3052  00EC  1103               	clrz
  3053  00ED  1803               	skipnc
  3054  00EE  3E01               	addlw	1
  3055  00EF  1903               	skipnz
  3056  00F0  28F2               	goto	u190_21
  3057  00F1  07BE               	addwf	___flmul@prod+1,f
  3058  00F2                     u190_21:
  3059  00F2  0833               	movf	??___flmul+2,w
  3060  00F3  1103               	clrz
  3061  00F4  1803               	skipnc
  3062  00F5  3E01               	addlw	1
  3063  00F6  1903               	skipnz
  3064  00F7  28F9               	goto	u190_22
  3065  00F8  07BF               	addwf	___flmul@prod+2,f
  3066  00F9                     u190_22:
  3067  00F9  0834               	movf	??___flmul+3,w
  3068  00FA  1103               	clrz
  3069  00FB  1803               	skipnc
  3070  00FC  3E01               	addlw	1
  3071  00FD  1903               	skipnz
  3072  00FE  2900               	goto	u190_23
  3073  00FF  07C0               	addwf	___flmul@prod+3,f
  3074  0100                     u190_23:
  3075  0100  082B               	movf	___flmul@b+2,w
  3076  0101  00B1               	movwf	??___flmul
  3077  0102  0831               	movf	??___flmul,w
  3078  0103  00A0               	movwf	__Umul8_16@multiplicand
  3079  0104  082D               	movf	___flmul@a,w
  3080  0105  158A  2662  118A   	fcall	__Umul8_16
  3081  0108  1283               	bcf	3,5	;RP0=0, select bank0
  3082  0109  1303               	bcf	3,6	;RP1=0, select bank0
  3083  010A  0821               	movf	?__Umul8_16+1,w
  3084  010B  00C2               	movwf	___flmul@temp+1
  3085  010C  0820               	movf	?__Umul8_16,w
  3086  010D  00C1               	movwf	___flmul@temp
  3087  010E                     i1l1466:
  3088  010E  0841               	movf	___flmul@temp,w
  3089  010F  00B1               	movwf	??___flmul
  3090  0110  01B2               	clrf	??___flmul+1
  3091  0111  01B3               	clrf	??___flmul+2
  3092  0112  01B4               	clrf	??___flmul+3
  3093  0113  0831               	movf	??___flmul,w
  3094  0114  07B7               	addwf	___flmul@grs,f
  3095  0115  0832               	movf	??___flmul+1,w
  3096  0116  1103               	clrz
  3097  0117  1803               	skipnc
  3098  0118  3E01               	addlw	1
  3099  0119  1903               	skipnz
  3100  011A  291C               	goto	u191_21
  3101  011B  07B8               	addwf	___flmul@grs+1,f
  3102  011C                     u191_21:
  3103  011C  0833               	movf	??___flmul+2,w
  3104  011D  1103               	clrz
  3105  011E  1803               	skipnc
  3106  011F  3E01               	addlw	1
  3107  0120  1903               	skipnz
  3108  0121  2923               	goto	u191_22
  3109  0122  07B9               	addwf	___flmul@grs+2,f
  3110  0123                     u191_22:
  3111  0123  0834               	movf	??___flmul+3,w
  3112  0124  1103               	clrz
  3113  0125  1803               	skipnc
  3114  0126  3E01               	addlw	1
  3115  0127  1903               	skipnz
  3116  0128  292A               	goto	u191_23
  3117  0129  07BA               	addwf	___flmul@grs+3,f
  3118  012A                     u191_23:
  3119  012A                     i1l1468:
  3120  012A  0842               	movf	___flmul@temp+1,w
  3121  012B  00B1               	movwf	??___flmul
  3122  012C  01B2               	clrf	??___flmul+1
  3123  012D  01B3               	clrf	??___flmul+2
  3124  012E  01B4               	clrf	??___flmul+3
  3125  012F  0831               	movf	??___flmul,w
  3126  0130  07BD               	addwf	___flmul@prod,f
  3127  0131  0832               	movf	??___flmul+1,w
  3128  0132  1103               	clrz
  3129  0133  1803               	skipnc
  3130  0134  3E01               	addlw	1
  3131  0135  1903               	skipnz
  3132  0136  2938               	goto	u192_21
  3133  0137  07BE               	addwf	___flmul@prod+1,f
  3134  0138                     u192_21:
  3135  0138  0833               	movf	??___flmul+2,w
  3136  0139  1103               	clrz
  3137  013A  1803               	skipnc
  3138  013B  3E01               	addlw	1
  3139  013C  1903               	skipnz
  3140  013D  293F               	goto	u192_22
  3141  013E  07BF               	addwf	___flmul@prod+2,f
  3142  013F                     u192_22:
  3143  013F  0834               	movf	??___flmul+3,w
  3144  0140  1103               	clrz
  3145  0141  1803               	skipnc
  3146  0142  3E01               	addlw	1
  3147  0143  1903               	skipnz
  3148  0144  2946               	goto	u192_23
  3149  0145  07C0               	addwf	___flmul@prod+3,f
  3150  0146                     u192_23:
  3151  0146                     i1l1470:
  3152  0146  3008               	movlw	8
  3153  0147  00B1               	movwf	??___flmul
  3154  0148                     u193_25:
  3155  0148  1003               	clrc
  3156  0149  0DB7               	rlf	___flmul@grs,f
  3157  014A  0DB8               	rlf	___flmul@grs+1,f
  3158  014B  0DB9               	rlf	___flmul@grs+2,f
  3159  014C  0DBA               	rlf	___flmul@grs+3,f
  3160  014D  0BB1               	decfsz	??___flmul,f
  3161  014E  2948               	goto	u193_25
  3162  014F                     i1l1472:
  3163  014F  082A               	movf	___flmul@b+1,w
  3164  0150  00B1               	movwf	??___flmul
  3165  0151  0831               	movf	??___flmul,w
  3166  0152  00A0               	movwf	__Umul8_16@multiplicand
  3167  0153  082D               	movf	___flmul@a,w
  3168  0154  158A  2662  118A   	fcall	__Umul8_16
  3169  0157  1283               	bcf	3,5	;RP0=0, select bank0
  3170  0158  1303               	bcf	3,6	;RP1=0, select bank0
  3171  0159  0821               	movf	?__Umul8_16+1,w
  3172  015A  00C2               	movwf	___flmul@temp+1
  3173  015B  0820               	movf	?__Umul8_16,w
  3174  015C  00C1               	movwf	___flmul@temp
  3175  015D                     i1l1474:
  3176  015D  0841               	movf	___flmul@temp,w
  3177  015E  00B1               	movwf	??___flmul
  3178  015F  0842               	movf	___flmul@temp+1,w
  3179  0160  00B2               	movwf	??___flmul+1
  3180  0161  01B3               	clrf	??___flmul+2
  3181  0162  01B4               	clrf	??___flmul+3
  3182  0163  0831               	movf	??___flmul,w
  3183  0164  07B7               	addwf	___flmul@grs,f
  3184  0165  0832               	movf	??___flmul+1,w
  3185  0166  1103               	clrz
  3186  0167  1803               	skipnc
  3187  0168  3E01               	addlw	1
  3188  0169  1903               	skipnz
  3189  016A  296C               	goto	u194_21
  3190  016B  07B8               	addwf	___flmul@grs+1,f
  3191  016C                     u194_21:
  3192  016C  0833               	movf	??___flmul+2,w
  3193  016D  1103               	clrz
  3194  016E  1803               	skipnc
  3195  016F  3E01               	addlw	1
  3196  0170  1903               	skipnz
  3197  0171  2973               	goto	u194_22
  3198  0172  07B9               	addwf	___flmul@grs+2,f
  3199  0173                     u194_22:
  3200  0173  0834               	movf	??___flmul+3,w
  3201  0174  1103               	clrz
  3202  0175  1803               	skipnc
  3203  0176  3E01               	addlw	1
  3204  0177  1903               	skipnz
  3205  0178  297A               	goto	u194_23
  3206  0179  07BA               	addwf	___flmul@grs+3,f
  3207  017A                     u194_23:
  3208  017A                     i1l1476:
  3209  017A  0829               	movf	___flmul@b,w
  3210  017B  00B1               	movwf	??___flmul
  3211  017C  0831               	movf	??___flmul,w
  3212  017D  00A0               	movwf	__Umul8_16@multiplicand
  3213  017E  082E               	movf	___flmul@a+1,w
  3214  017F  158A  2662  118A   	fcall	__Umul8_16
  3215  0182  1283               	bcf	3,5	;RP0=0, select bank0
  3216  0183  1303               	bcf	3,6	;RP1=0, select bank0
  3217  0184  0821               	movf	?__Umul8_16+1,w
  3218  0185  00C2               	movwf	___flmul@temp+1
  3219  0186  0820               	movf	?__Umul8_16,w
  3220  0187  00C1               	movwf	___flmul@temp
  3221  0188                     i1l1478:
  3222  0188  0841               	movf	___flmul@temp,w
  3223  0189  00B1               	movwf	??___flmul
  3224  018A  0842               	movf	___flmul@temp+1,w
  3225  018B  00B2               	movwf	??___flmul+1
  3226  018C  01B3               	clrf	??___flmul+2
  3227  018D  01B4               	clrf	??___flmul+3
  3228  018E  0831               	movf	??___flmul,w
  3229  018F  07B7               	addwf	___flmul@grs,f
  3230  0190  0832               	movf	??___flmul+1,w
  3231  0191  1103               	clrz
  3232  0192  1803               	skipnc
  3233  0193  3E01               	addlw	1
  3234  0194  1903               	skipnz
  3235  0195  2997               	goto	u195_21
  3236  0196  07B8               	addwf	___flmul@grs+1,f
  3237  0197                     u195_21:
  3238  0197  0833               	movf	??___flmul+2,w
  3239  0198  1103               	clrz
  3240  0199  1803               	skipnc
  3241  019A  3E01               	addlw	1
  3242  019B  1903               	skipnz
  3243  019C  299E               	goto	u195_22
  3244  019D  07B9               	addwf	___flmul@grs+2,f
  3245  019E                     u195_22:
  3246  019E  0834               	movf	??___flmul+3,w
  3247  019F  1103               	clrz
  3248  01A0  1803               	skipnc
  3249  01A1  3E01               	addlw	1
  3250  01A2  1903               	skipnz
  3251  01A3  29A5               	goto	u195_23
  3252  01A4  07BA               	addwf	___flmul@grs+3,f
  3253  01A5                     u195_23:
  3254  01A5                     i1l1480:
  3255  01A5  3008               	movlw	8
  3256  01A6  00B1               	movwf	??___flmul
  3257  01A7                     u196_25:
  3258  01A7  1003               	clrc
  3259  01A8  0DB7               	rlf	___flmul@grs,f
  3260  01A9  0DB8               	rlf	___flmul@grs+1,f
  3261  01AA  0DB9               	rlf	___flmul@grs+2,f
  3262  01AB  0DBA               	rlf	___flmul@grs+3,f
  3263  01AC  0BB1               	decfsz	??___flmul,f
  3264  01AD  29A7               	goto	u196_25
  3265  01AE  0829               	movf	___flmul@b,w
  3266  01AF  00B1               	movwf	??___flmul
  3267  01B0  0831               	movf	??___flmul,w
  3268  01B1  00A0               	movwf	__Umul8_16@multiplicand
  3269  01B2  082D               	movf	___flmul@a,w
  3270  01B3  158A  2662  118A   	fcall	__Umul8_16
  3271  01B6  1283               	bcf	3,5	;RP0=0, select bank0
  3272  01B7  1303               	bcf	3,6	;RP1=0, select bank0
  3273  01B8  0821               	movf	?__Umul8_16+1,w
  3274  01B9  00C2               	movwf	___flmul@temp+1
  3275  01BA  0820               	movf	?__Umul8_16,w
  3276  01BB  00C1               	movwf	___flmul@temp
  3277  01BC                     i1l1482:
  3278  01BC  0841               	movf	___flmul@temp,w
  3279  01BD  00B1               	movwf	??___flmul
  3280  01BE  0842               	movf	___flmul@temp+1,w
  3281  01BF  00B2               	movwf	??___flmul+1
  3282  01C0  01B3               	clrf	??___flmul+2
  3283  01C1  01B4               	clrf	??___flmul+3
  3284  01C2  0831               	movf	??___flmul,w
  3285  01C3  07B7               	addwf	___flmul@grs,f
  3286  01C4  0832               	movf	??___flmul+1,w
  3287  01C5  1103               	clrz
  3288  01C6  1803               	skipnc
  3289  01C7  3E01               	addlw	1
  3290  01C8  1903               	skipnz
  3291  01C9  29CB               	goto	u197_21
  3292  01CA  07B8               	addwf	___flmul@grs+1,f
  3293  01CB                     u197_21:
  3294  01CB  0833               	movf	??___flmul+2,w
  3295  01CC  1103               	clrz
  3296  01CD  1803               	skipnc
  3297  01CE  3E01               	addlw	1
  3298  01CF  1903               	skipnz
  3299  01D0  29D2               	goto	u197_22
  3300  01D1  07B9               	addwf	___flmul@grs+2,f
  3301  01D2                     u197_22:
  3302  01D2  0834               	movf	??___flmul+3,w
  3303  01D3  1103               	clrz
  3304  01D4  1803               	skipnc
  3305  01D5  3E01               	addlw	1
  3306  01D6  1903               	skipnz
  3307  01D7  29D9               	goto	u197_23
  3308  01D8  07BA               	addwf	___flmul@grs+3,f
  3309  01D9                     u197_23:
  3310  01D9                     i1l1484:
  3311  01D9  082A               	movf	___flmul@b+1,w
  3312  01DA  00B1               	movwf	??___flmul
  3313  01DB  0831               	movf	??___flmul,w
  3314  01DC  00A0               	movwf	__Umul8_16@multiplicand
  3315  01DD  082F               	movf	___flmul@a+2,w
  3316  01DE  158A  2662  118A   	fcall	__Umul8_16
  3317  01E1  1283               	bcf	3,5	;RP0=0, select bank0
  3318  01E2  1303               	bcf	3,6	;RP1=0, select bank0
  3319  01E3  0821               	movf	?__Umul8_16+1,w
  3320  01E4  00C2               	movwf	___flmul@temp+1
  3321  01E5  0820               	movf	?__Umul8_16,w
  3322  01E6  00C1               	movwf	___flmul@temp
  3323  01E7  0841               	movf	___flmul@temp,w
  3324  01E8  00B1               	movwf	??___flmul
  3325  01E9  0842               	movf	___flmul@temp+1,w
  3326  01EA  00B2               	movwf	??___flmul+1
  3327  01EB  01B3               	clrf	??___flmul+2
  3328  01EC  01B4               	clrf	??___flmul+3
  3329  01ED  0831               	movf	??___flmul,w
  3330  01EE  07BD               	addwf	___flmul@prod,f
  3331  01EF  0832               	movf	??___flmul+1,w
  3332  01F0  1103               	clrz
  3333  01F1  1803               	skipnc
  3334  01F2  3E01               	addlw	1
  3335  01F3  1903               	skipnz
  3336  01F4  29F6               	goto	u198_21
  3337  01F5  07BE               	addwf	___flmul@prod+1,f
  3338  01F6                     u198_21:
  3339  01F6  0833               	movf	??___flmul+2,w
  3340  01F7  1103               	clrz
  3341  01F8  1803               	skipnc
  3342  01F9  3E01               	addlw	1
  3343  01FA  1903               	skipnz
  3344  01FB  29FD               	goto	u198_22
  3345  01FC  07BF               	addwf	___flmul@prod+2,f
  3346  01FD                     u198_22:
  3347  01FD  0834               	movf	??___flmul+3,w
  3348  01FE  1103               	clrz
  3349  01FF  1803               	skipnc
  3350  0200  3E01               	addlw	1
  3351  0201  1903               	skipnz
  3352  0202  2A04               	goto	u198_23
  3353  0203  07C0               	addwf	___flmul@prod+3,f
  3354  0204                     u198_23:
  3355  0204                     i1l1486:
  3356  0204  082B               	movf	___flmul@b+2,w
  3357  0205  00B1               	movwf	??___flmul
  3358  0206  0831               	movf	??___flmul,w
  3359  0207  00A0               	movwf	__Umul8_16@multiplicand
  3360  0208  082E               	movf	___flmul@a+1,w
  3361  0209  158A  2662  118A   	fcall	__Umul8_16
  3362  020C  1283               	bcf	3,5	;RP0=0, select bank0
  3363  020D  1303               	bcf	3,6	;RP1=0, select bank0
  3364  020E  0821               	movf	?__Umul8_16+1,w
  3365  020F  00C2               	movwf	___flmul@temp+1
  3366  0210  0820               	movf	?__Umul8_16,w
  3367  0211  00C1               	movwf	___flmul@temp
  3368  0212                     i1l1488:
  3369  0212  0841               	movf	___flmul@temp,w
  3370  0213  00B1               	movwf	??___flmul
  3371  0214  0842               	movf	___flmul@temp+1,w
  3372  0215  00B2               	movwf	??___flmul+1
  3373  0216  01B3               	clrf	??___flmul+2
  3374  0217  01B4               	clrf	??___flmul+3
  3375  0218  0831               	movf	??___flmul,w
  3376  0219  07BD               	addwf	___flmul@prod,f
  3377  021A  0832               	movf	??___flmul+1,w
  3378  021B  1103               	clrz
  3379  021C  1803               	skipnc
  3380  021D  3E01               	addlw	1
  3381  021E  1903               	skipnz
  3382  021F  2A21               	goto	u199_21
  3383  0220  07BE               	addwf	___flmul@prod+1,f
  3384  0221                     u199_21:
  3385  0221  0833               	movf	??___flmul+2,w
  3386  0222  1103               	clrz
  3387  0223  1803               	skipnc
  3388  0224  3E01               	addlw	1
  3389  0225  1903               	skipnz
  3390  0226  2A28               	goto	u199_22
  3391  0227  07BF               	addwf	___flmul@prod+2,f
  3392  0228                     u199_22:
  3393  0228  0834               	movf	??___flmul+3,w
  3394  0229  1103               	clrz
  3395  022A  1803               	skipnc
  3396  022B  3E01               	addlw	1
  3397  022C  1903               	skipnz
  3398  022D  2A2F               	goto	u199_23
  3399  022E  07C0               	addwf	___flmul@prod+3,f
  3400  022F                     u199_23:
  3401  022F  082B               	movf	___flmul@b+2,w
  3402  0230  00B1               	movwf	??___flmul
  3403  0231  0831               	movf	??___flmul,w
  3404  0232  00A0               	movwf	__Umul8_16@multiplicand
  3405  0233  082F               	movf	___flmul@a+2,w
  3406  0234  158A  2662  118A   	fcall	__Umul8_16
  3407  0237  1283               	bcf	3,5	;RP0=0, select bank0
  3408  0238  1303               	bcf	3,6	;RP1=0, select bank0
  3409  0239  0821               	movf	?__Umul8_16+1,w
  3410  023A  00C2               	movwf	___flmul@temp+1
  3411  023B  0820               	movf	?__Umul8_16,w
  3412  023C  00C1               	movwf	___flmul@temp
  3413  023D                     i1l1490:
  3414  023D  0841               	movf	___flmul@temp,w
  3415  023E  00B1               	movwf	??___flmul
  3416  023F  0842               	movf	___flmul@temp+1,w
  3417  0240  00B2               	movwf	??___flmul+1
  3418  0241  01B3               	clrf	??___flmul+2
  3419  0242  01B4               	clrf	??___flmul+3
  3420  0243  3008               	movlw	8
  3421  0244                     u200_25:
  3422  0244  1003               	clrc
  3423  0245  0DB1               	rlf	??___flmul,f
  3424  0246  0DB2               	rlf	??___flmul+1,f
  3425  0247  0DB3               	rlf	??___flmul+2,f
  3426  0248  0DB4               	rlf	??___flmul+3,f
  3427  0249                     u200_20:
  3428  0249  3EFF               	addlw	-1
  3429  024A  1D03               	skipz
  3430  024B  2A44               	goto	u200_25
  3431  024C  0831               	movf	??___flmul,w
  3432  024D  07BD               	addwf	___flmul@prod,f
  3433  024E  0832               	movf	??___flmul+1,w
  3434  024F  1103               	clrz
  3435  0250  1803               	skipnc
  3436  0251  3E01               	addlw	1
  3437  0252  1903               	skipnz
  3438  0253  2A55               	goto	u201_21
  3439  0254  07BE               	addwf	___flmul@prod+1,f
  3440  0255                     u201_21:
  3441  0255  0833               	movf	??___flmul+2,w
  3442  0256  1103               	clrz
  3443  0257  1803               	skipnc
  3444  0258  3E01               	addlw	1
  3445  0259  1903               	skipnz
  3446  025A  2A5C               	goto	u201_22
  3447  025B  07BF               	addwf	___flmul@prod+2,f
  3448  025C                     u201_22:
  3449  025C  0834               	movf	??___flmul+3,w
  3450  025D  1103               	clrz
  3451  025E  1803               	skipnc
  3452  025F  3E01               	addlw	1
  3453  0260  1903               	skipnz
  3454  0261  2A63               	goto	u201_23
  3455  0262  07C0               	addwf	___flmul@prod+3,f
  3456  0263                     u201_23:
  3457  0263                     i1l1492:
  3458  0263  0837               	movf	___flmul@grs,w
  3459  0264  00B1               	movwf	??___flmul
  3460  0265  0838               	movf	___flmul@grs+1,w
  3461  0266  00B2               	movwf	??___flmul+1
  3462  0267  0839               	movf	___flmul@grs+2,w
  3463  0268  00B3               	movwf	??___flmul+2
  3464  0269  083A               	movf	___flmul@grs+3,w
  3465  026A  00B4               	movwf	??___flmul+3
  3466  026B  3018               	movlw	24
  3467  026C                     u202_25:
  3468  026C  1003               	clrc
  3469  026D  0CB4               	rrf	??___flmul+3,f
  3470  026E  0CB3               	rrf	??___flmul+2,f
  3471  026F  0CB2               	rrf	??___flmul+1,f
  3472  0270  0CB1               	rrf	??___flmul,f
  3473  0271                     u202_20:
  3474  0271  3EFF               	addlw	-1
  3475  0272  1D03               	skipz
  3476  0273  2A6C               	goto	u202_25
  3477  0274  0831               	movf	??___flmul,w
  3478  0275  07BD               	addwf	___flmul@prod,f
  3479  0276  0832               	movf	??___flmul+1,w
  3480  0277  1103               	clrz
  3481  0278  1803               	skipnc
  3482  0279  3E01               	addlw	1
  3483  027A  1903               	skipnz
  3484  027B  2A7D               	goto	u203_21
  3485  027C  07BE               	addwf	___flmul@prod+1,f
  3486  027D                     u203_21:
  3487  027D  0833               	movf	??___flmul+2,w
  3488  027E  1103               	clrz
  3489  027F  1803               	skipnc
  3490  0280  3E01               	addlw	1
  3491  0281  1903               	skipnz
  3492  0282  2A84               	goto	u203_22
  3493  0283  07BF               	addwf	___flmul@prod+2,f
  3494  0284                     u203_22:
  3495  0284  0834               	movf	??___flmul+3,w
  3496  0285  1103               	clrz
  3497  0286  1803               	skipnc
  3498  0287  3E01               	addlw	1
  3499  0288  1903               	skipnz
  3500  0289  2A8B               	goto	u203_23
  3501  028A  07C0               	addwf	___flmul@prod+3,f
  3502  028B                     u203_23:
  3503  028B                     i1l1494:
  3504  028B  3008               	movlw	8
  3505  028C  00B1               	movwf	??___flmul
  3506  028D                     u204_25:
  3507  028D  1003               	clrc
  3508  028E  0DB7               	rlf	___flmul@grs,f
  3509  028F  0DB8               	rlf	___flmul@grs+1,f
  3510  0290  0DB9               	rlf	___flmul@grs+2,f
  3511  0291  0DBA               	rlf	___flmul@grs+3,f
  3512  0292  0BB1               	decfsz	??___flmul,f
  3513  0293  2A8D               	goto	u204_25
  3514  0294                     i1l1496:
  3515  0294  083C               	movf	___flmul@bexp,w
  3516  0295  073B               	addwf	___flmul@aexp,w
  3517  0296  00B1               	movwf	??___flmul
  3518  0297  01B2               	clrf	??___flmul+1
  3519  0298  0DB2               	rlf	??___flmul+1,f
  3520  0299  0831               	movf	??___flmul,w
  3521  029A  3E82               	addlw	130
  3522  029B  00C1               	movwf	___flmul@temp
  3523  029C  0832               	movf	??___flmul+1,w
  3524  029D  1803               	skipnc
  3525  029E  3E01               	addlw	1
  3526  029F  3EFF               	addlw	255
  3527  02A0  00C2               	movwf	___flmul@temp+1
  3528  02A1  2ABF               	goto	i1l1508
  3529  02A2                     i1l1498:
  3530  02A2  3001               	movlw	1
  3531  02A3  00B1               	movwf	??___flmul
  3532  02A4                     u205_25:
  3533  02A4  1003               	clrc
  3534  02A5  0DBD               	rlf	___flmul@prod,f
  3535  02A6  0DBE               	rlf	___flmul@prod+1,f
  3536  02A7  0DBF               	rlf	___flmul@prod+2,f
  3537  02A8  0DC0               	rlf	___flmul@prod+3,f
  3538  02A9  0BB1               	decfsz	??___flmul,f
  3539  02AA  2AA4               	goto	u205_25
  3540  02AB                     i1l1500:
  3541  02AB  1FBA               	btfss	___flmul@grs+3,7
  3542  02AC  2AAE               	goto	u206_21
  3543  02AD  2AAF               	goto	u206_20
  3544  02AE                     u206_21:
  3545  02AE  2AB0               	goto	i1l1504
  3546  02AF                     u206_20:
  3547  02AF                     i1l1502:
  3548  02AF  143D               	bsf	___flmul@prod,0
  3549  02B0                     i1l1504:
  3550  02B0  3001               	movlw	1
  3551  02B1  00B1               	movwf	??___flmul
  3552  02B2                     u207_25:
  3553  02B2  1003               	clrc
  3554  02B3  0DB7               	rlf	___flmul@grs,f
  3555  02B4  0DB8               	rlf	___flmul@grs+1,f
  3556  02B5  0DB9               	rlf	___flmul@grs+2,f
  3557  02B6  0DBA               	rlf	___flmul@grs+3,f
  3558  02B7  0BB1               	decfsz	??___flmul,f
  3559  02B8  2AB2               	goto	u207_25
  3560  02B9                     i1l1506:
  3561  02B9  30FF               	movlw	255
  3562  02BA  07C1               	addwf	___flmul@temp,f
  3563  02BB  1803               	skipnc
  3564  02BC  0AC2               	incf	___flmul@temp+1,f
  3565  02BD  30FF               	movlw	255
  3566  02BE  07C2               	addwf	___flmul@temp+1,f
  3567  02BF                     i1l1508:
  3568  02BF  1FBF               	btfss	___flmul@prod+2,7
  3569  02C0  2AC2               	goto	u208_21
  3570  02C1  2AC3               	goto	u208_20
  3571  02C2                     u208_21:
  3572  02C2  2AA2               	goto	i1l1498
  3573  02C3                     u208_20:
  3574  02C3                     i1l1510:
  3575  02C3  01BB               	clrf	___flmul@aexp
  3576  02C4                     i1l1512:
  3577  02C4  1FBA               	btfss	___flmul@grs+3,7
  3578  02C5  2AC7               	goto	u209_21
  3579  02C6  2AC8               	goto	u209_20
  3580  02C7                     u209_21:
  3581  02C7  2AE4               	goto	i1l1520
  3582  02C8                     u209_20:
  3583  02C8                     i1l1514:
  3584  02C8  30FF               	movlw	255
  3585  02C9  0537               	andwf	___flmul@grs,w
  3586  02CA  00B1               	movwf	??___flmul
  3587  02CB  30FF               	movlw	255
  3588  02CC  0538               	andwf	___flmul@grs+1,w
  3589  02CD  00B2               	movwf	??___flmul+1
  3590  02CE  30FF               	movlw	255
  3591  02CF  0539               	andwf	___flmul@grs+2,w
  3592  02D0  00B3               	movwf	??___flmul+2
  3593  02D1  307F               	movlw	127
  3594  02D2  053A               	andwf	___flmul@grs+3,w
  3595  02D3  00B4               	movwf	??___flmul+3
  3596  02D4  0834               	movf	??___flmul+3,w
  3597  02D5  0433               	iorwf	??___flmul+2,w
  3598  02D6  0432               	iorwf	??___flmul+1,w
  3599  02D7  0431               	iorwf	??___flmul,w
  3600  02D8  1903               	skipnz
  3601  02D9  2ADB               	goto	u210_21
  3602  02DA  2ADC               	goto	u210_20
  3603  02DB                     u210_21:
  3604  02DB  2ADF               	goto	i1l482
  3605  02DC                     u210_20:
  3606  02DC                     i1l1516:
  3607  02DC  01BB               	clrf	___flmul@aexp
  3608  02DD  0ABB               	incf	___flmul@aexp,f
  3609  02DE  2AE4               	goto	i1l1520
  3610  02DF                     i1l482:
  3611  02DF  1C3D               	btfss	___flmul@prod,0
  3612  02E0  2AE2               	goto	u211_21
  3613  02E1  2AE3               	goto	u211_20
  3614  02E2                     u211_21:
  3615  02E2  2AE4               	goto	i1l1520
  3616  02E3                     u211_20:
  3617  02E3  2ADC               	goto	i1l1516
  3618  02E4                     i1l1520:
  3619  02E4  083B               	movf	___flmul@aexp,w
  3620  02E5  1903               	btfsc	3,2
  3621  02E6  2AE8               	goto	u212_21
  3622  02E7  2AE9               	goto	u212_20
  3623  02E8                     u212_21:
  3624  02E8  2B1A               	goto	i1l1530
  3625  02E9                     u212_20:
  3626  02E9                     i1l1522:
  3627  02E9  3001               	movlw	1
  3628  02EA  07BD               	addwf	___flmul@prod,f
  3629  02EB  3000               	movlw	0
  3630  02EC  1803               	skipnc
  3631  02ED  3001               	movlw	1
  3632  02EE  07BE               	addwf	___flmul@prod+1,f
  3633  02EF  3000               	movlw	0
  3634  02F0  1803               	skipnc
  3635  02F1  3001               	movlw	1
  3636  02F2  07BF               	addwf	___flmul@prod+2,f
  3637  02F3  3000               	movlw	0
  3638  02F4  1803               	skipnc
  3639  02F5  3001               	movlw	1
  3640  02F6  07C0               	addwf	___flmul@prod+3,f
  3641  02F7                     i1l1524:
  3642  02F7  1C40               	btfss	___flmul@prod+3,0
  3643  02F8  2AFA               	goto	u213_21
  3644  02F9  2AFB               	goto	u213_20
  3645  02FA                     u213_21:
  3646  02FA  2B1A               	goto	i1l1530
  3647  02FB                     u213_20:
  3648  02FB                     i1l1526:
  3649  02FB  083D               	movf	___flmul@prod,w
  3650  02FC  00B1               	movwf	??___flmul
  3651  02FD  083E               	movf	___flmul@prod+1,w
  3652  02FE  00B2               	movwf	??___flmul+1
  3653  02FF  083F               	movf	___flmul@prod+2,w
  3654  0300  00B3               	movwf	??___flmul+2
  3655  0301  0840               	movf	___flmul@prod+3,w
  3656  0302  00B4               	movwf	??___flmul+3
  3657  0303  3001               	movlw	1
  3658  0304  00B5               	movwf	??___flmul+4
  3659  0305                     u214_25:
  3660  0305  0D34               	rlf	??___flmul+3,w
  3661  0306  0CB4               	rrf	??___flmul+3,f
  3662  0307  0CB3               	rrf	??___flmul+2,f
  3663  0308  0CB2               	rrf	??___flmul+1,f
  3664  0309  0CB1               	rrf	??___flmul,f
  3665  030A                     u214_20:
  3666  030A  0BB5               	decfsz	??___flmul+4,f
  3667  030B  2B05               	goto	u214_25
  3668  030C  0834               	movf	??___flmul+3,w
  3669  030D  00C0               	movwf	___flmul@prod+3
  3670  030E  0833               	movf	??___flmul+2,w
  3671  030F  00BF               	movwf	___flmul@prod+2
  3672  0310  0832               	movf	??___flmul+1,w
  3673  0311  00BE               	movwf	___flmul@prod+1
  3674  0312  0831               	movf	??___flmul,w
  3675  0313  00BD               	movwf	___flmul@prod
  3676  0314                     i1l1528:
  3677  0314  3001               	movlw	1
  3678  0315  07C1               	addwf	___flmul@temp,f
  3679  0316  1803               	skipnc
  3680  0317  0AC2               	incf	___flmul@temp+1,f
  3681  0318  3000               	movlw	0
  3682  0319  07C2               	addwf	___flmul@temp+1,f
  3683  031A                     i1l1530:
  3684  031A  0842               	movf	___flmul@temp+1,w
  3685  031B  3A80               	xorlw	128
  3686  031C  00FF               	movwf	btemp+1
  3687  031D  3080               	movlw	128
  3688  031E  027F               	subwf	btemp+1,w
  3689  031F  1D03               	skipz
  3690  0320  2B23               	goto	u215_25
  3691  0321  30FF               	movlw	255
  3692  0322  0241               	subwf	___flmul@temp,w
  3693  0323                     u215_25:
  3694  0323  1C03               	skipc
  3695  0324  2B26               	goto	u215_21
  3696  0325  2B27               	goto	u215_20
  3697  0326                     u215_21:
  3698  0326  2B32               	goto	i1l1534
  3699  0327                     u215_20:
  3700  0327                     i1l1532:
  3701  0327  307F               	movlw	127
  3702  0328  1283               	bcf	3,5	;RP0=0, select bank0
  3703  0329  1303               	bcf	3,6	;RP1=0, select bank0
  3704  032A  00C0               	movwf	___flmul@prod+3
  3705  032B  3080               	movlw	128
  3706  032C  00BF               	movwf	___flmul@prod+2
  3707  032D  3000               	movlw	0
  3708  032E  00BE               	movwf	___flmul@prod+1
  3709  032F  3000               	movlw	0
  3710  0330  00BD               	movwf	___flmul@prod
  3711  0331  2B67               	goto	i1l488
  3712  0332                     i1l1534:
  3713  0332  1283               	bcf	3,5	;RP0=0, select bank0
  3714  0333  1303               	bcf	3,6	;RP1=0, select bank0
  3715  0334  0842               	movf	___flmul@temp+1,w
  3716  0335  3A80               	xorlw	128
  3717  0336  00FF               	movwf	btemp+1
  3718  0337  3080               	movlw	128
  3719  0338  027F               	subwf	btemp+1,w
  3720  0339  1D03               	skipz
  3721  033A  2B3D               	goto	u216_25
  3722  033B  3001               	movlw	1
  3723  033C  0241               	subwf	___flmul@temp,w
  3724  033D                     u216_25:
  3725  033D  1803               	skipnc
  3726  033E  2B40               	goto	u216_21
  3727  033F  2B41               	goto	u216_20
  3728  0340                     u216_21:
  3729  0340  2B4D               	goto	i1l1540
  3730  0341                     u216_20:
  3731  0341                     i1l1536:
  3732  0341  3000               	movlw	0
  3733  0342  1283               	bcf	3,5	;RP0=0, select bank0
  3734  0343  1303               	bcf	3,6	;RP1=0, select bank0
  3735  0344  00C0               	movwf	___flmul@prod+3
  3736  0345  3000               	movlw	0
  3737  0346  00BF               	movwf	___flmul@prod+2
  3738  0347  3000               	movlw	0
  3739  0348  00BE               	movwf	___flmul@prod+1
  3740  0349  3000               	movlw	0
  3741  034A  00BD               	movwf	___flmul@prod
  3742  034B                     i1l1538:
  3743  034B  01B6               	clrf	___flmul@sign
  3744  034C  2B67               	goto	i1l488
  3745  034D                     i1l1540:
  3746  034D  1283               	bcf	3,5	;RP0=0, select bank0
  3747  034E  1303               	bcf	3,6	;RP1=0, select bank0
  3748  034F  0841               	movf	___flmul@temp,w
  3749  0350  00B1               	movwf	??___flmul
  3750  0351  0831               	movf	??___flmul,w
  3751  0352  00BC               	movwf	___flmul@bexp
  3752  0353  30FF               	movlw	255
  3753  0354  05BD               	andwf	___flmul@prod,f
  3754  0355  30FF               	movlw	255
  3755  0356  05BE               	andwf	___flmul@prod+1,f
  3756  0357  307F               	movlw	127
  3757  0358  05BF               	andwf	___flmul@prod+2,f
  3758  0359  3000               	movlw	0
  3759  035A  05C0               	andwf	___flmul@prod+3,f
  3760  035B                     i1l1542:
  3761  035B  1C3C               	btfss	___flmul@bexp,0
  3762  035C  2B5E               	goto	u217_21
  3763  035D  2B5F               	goto	u217_20
  3764  035E                     u217_21:
  3765  035E  2B60               	goto	i1l1546
  3766  035F                     u217_20:
  3767  035F                     i1l1544:
  3768  035F  17BF               	bsf	___flmul@prod+2,7
  3769  0360                     i1l1546:
  3770  0360  083C               	movf	___flmul@bexp,w
  3771  0361  00B1               	movwf	??___flmul
  3772  0362  1003               	clrc
  3773  0363  0C31               	rrf	??___flmul,w
  3774  0364  00B2               	movwf	??___flmul+1
  3775  0365  0832               	movf	??___flmul+1,w
  3776  0366  00C0               	movwf	___flmul@prod+3
  3777  0367                     i1l488:
  3778  0367  0836               	movf	___flmul@sign,w
  3779  0368  00B1               	movwf	??___flmul
  3780  0369  0831               	movf	??___flmul,w
  3781  036A  04C0               	iorwf	___flmul@prod+3,f
  3782  036B                     i1l1548:
  3783  036B  0840               	movf	___flmul@prod+3,w
  3784  036C  00AC               	movwf	?___flmul+3
  3785  036D  083F               	movf	___flmul@prod+2,w
  3786  036E  00AB               	movwf	?___flmul+2
  3787  036F  083E               	movf	___flmul@prod+1,w
  3788  0370  00AA               	movwf	?___flmul+1
  3789  0371  083D               	movf	___flmul@prod,w
  3790  0372  00A9               	movwf	?___flmul
  3791  0373                     i1l476:
  3792  0373  0008               	return
  3793  0374                     __end_of___flmul:
  3794                           
  3795                           	psect	text9
  3796  0E62                     __ptext9:	
  3797 ;; *************** function __Umul8_16 *****************
  3798 ;; Defined at:
  3799 ;;		line 4 in file "C:\Program Files\Microchip\xc8\v2.32\pic\sources\c90\common\Umul8_16.c"
  3800 ;; Parameters:    Size  Location     Type
  3801 ;;  multiplier      1    wreg     unsigned char 
  3802 ;;  multiplicand    1    0[BANK0 ] unsigned char 
  3803 ;; Auto vars:     Size  Location     Type
  3804 ;;  multiplier      1    8[BANK0 ] unsigned char 
  3805 ;;  word_mpld       2    6[BANK0 ] unsigned int 
  3806 ;;  product         2    4[BANK0 ] unsigned int 
  3807 ;; Return value:  Size  Location     Type
  3808 ;;                  2    0[BANK0 ] unsigned int 
  3809 ;; Registers used:
  3810 ;;		wreg, status,2, status,0
  3811 ;; Tracked objects:
  3812 ;;		On entry : 0/0
  3813 ;;		On exit  : 0/0
  3814 ;;		Unchanged: 0/0
  3815 ;; Data sizes:     COMMON   BANK0   BANK1
  3816 ;;      Params:         0       2       0
  3817 ;;      Locals:         0       5       0
  3818 ;;      Temps:          0       2       0
  3819 ;;      Totals:         0       9       0
  3820 ;;Total ram usage:        9 bytes
  3821 ;; Hardware stack levels used: 1
  3822 ;; This function calls:
  3823 ;;		Nothing
  3824 ;; This function is called by:
  3825 ;;		___flmul
  3826 ;; This function uses a non-reentrant model
  3827 ;;
  3828                           
  3829                           
  3830                           ;psect for function __Umul8_16
  3831  0E62                     __Umul8_16:
  3832                           
  3833                           ;incstack = 0
  3834                           ; Regs used in __Umul8_16: [wreg+status,2+status,0]
  3835                           ;__Umul8_16@multiplier stored from wreg
  3836  0E62  1283               	bcf	3,5	;RP0=0, select bank0
  3837  0E63  1303               	bcf	3,6	;RP1=0, select bank0
  3838  0E64  00A8               	movwf	__Umul8_16@multiplier
  3839  0E65                     i1l1356:
  3840  0E65  01A4               	clrf	__Umul8_16@product
  3841  0E66  01A5               	clrf	__Umul8_16@product+1
  3842  0E67                     i1l1358:
  3843  0E67  0820               	movf	__Umul8_16@multiplicand,w
  3844  0E68  00A2               	movwf	??__Umul8_16
  3845  0E69  01A3               	clrf	??__Umul8_16+1
  3846  0E6A  0822               	movf	??__Umul8_16,w
  3847  0E6B  00A6               	movwf	__Umul8_16@word_mpld
  3848  0E6C  0823               	movf	??__Umul8_16+1,w
  3849  0E6D  00A7               	movwf	__Umul8_16@word_mpld+1
  3850  0E6E                     i1l1360:
  3851  0E6E  1C28               	btfss	__Umul8_16@multiplier,0
  3852  0E6F  2E71               	goto	u168_21
  3853  0E70  2E72               	goto	u168_20
  3854  0E71                     u168_21:
  3855  0E71  2E78               	goto	i1l495
  3856  0E72                     u168_20:
  3857  0E72                     i1l1362:
  3858  0E72  0826               	movf	__Umul8_16@word_mpld,w
  3859  0E73  07A4               	addwf	__Umul8_16@product,f
  3860  0E74  1803               	skipnc
  3861  0E75  0AA5               	incf	__Umul8_16@product+1,f
  3862  0E76  0827               	movf	__Umul8_16@word_mpld+1,w
  3863  0E77  07A5               	addwf	__Umul8_16@product+1,f
  3864  0E78                     i1l495:
  3865  0E78  3001               	movlw	1
  3866  0E79                     u169_25:
  3867  0E79  1003               	clrc
  3868  0E7A  0DA6               	rlf	__Umul8_16@word_mpld,f
  3869  0E7B  0DA7               	rlf	__Umul8_16@word_mpld+1,f
  3870  0E7C  3EFF               	addlw	-1
  3871  0E7D  1D03               	skipz
  3872  0E7E  2E79               	goto	u169_25
  3873  0E7F  1003               	clrc
  3874  0E80  0CA8               	rrf	__Umul8_16@multiplier,f
  3875  0E81                     i1l1364:
  3876  0E81  0828               	movf	__Umul8_16@multiplier,w
  3877  0E82  1D03               	btfss	3,2
  3878  0E83  2E85               	goto	u170_21
  3879  0E84  2E86               	goto	u170_20
  3880  0E85                     u170_21:
  3881  0E85  2E6E               	goto	i1l1360
  3882  0E86                     u170_20:
  3883  0E86                     i1l1366:
  3884  0E86  0825               	movf	__Umul8_16@product+1,w
  3885  0E87  00A1               	movwf	?__Umul8_16+1
  3886  0E88  0824               	movf	__Umul8_16@product,w
  3887  0E89  00A0               	movwf	?__Umul8_16
  3888  0E8A                     i1l497:
  3889  0E8A  0008               	return
  3890  0E8B                     __end_of__Umul8_16:
  3891  007E                     btemp	set	126	;btemp
  3892  007E                     wtemp0	set	126

Data Sizes:
    Strings     3
    Constant    0
    Data        2
    BSS         25
    Persistent  0
    Stack       0

Auto Spaces:
    Space          Size  Autos    Used
    COMMON            0      0       0
    BANK0            94     64      91
    BANK1            94      0       0

Pointer List with Targets:

    _doprnt$2	PTR PTR void  size(1) Largest target is 1
		 -> printf@ap(BANK0[1]), 

    _doprnt$1	PTR const unsigned char  size(1) Largest target is 3
		 -> STR_1(CODE[3]), 

    _doprnt$0	PTR struct __prbuf size(1) Largest target is 3
		 -> printf@pb(BANK0[2]), 

    S372__prbuf$func	PTR FTN(unsigned char ,)void  size(1) Largest target is 1
		 -> putch(), 

    pb.func	PTR FTN(unsigned char ,)void  size(1) Largest target is 1
		 -> putch(), 

    S372__prbuf$ptr	PTR unsigned char  size(1) Largest target is 0
		 -> NULL(NULL[0]), 

    pb.ptr	PTR unsigned char  size(1) Largest target is 0
		 -> NULL(NULL[0]), 

    konwersja_na_bity@wynik	PTR unsigned char  size(1) Largest target is 9
		 -> wynik(BANK0[9]), 


Critical Paths under _main in COMMON

    None.

Critical Paths under _zero in COMMON

    None.

Critical Paths under _main in BANK0

    None.

Critical Paths under _zero in BANK0

    _zero->_konwersja_na_bity
    _policz_przyspieszenie->___flmul
    _konwersja_na_bity->___flmul
    ___flsub->___fladd
    ___flmul->__Umul8_16

Critical Paths under _main in BANK1

    None.

Critical Paths under _zero in BANK1

    None.

Call Graph Tables:

 ---------------------------------------------------------------------------------
 (Depth) Function   	        Calls       Base Space   Used Autos Params    Refs
 ---------------------------------------------------------------------------------
 (0) _main                                                 0     0      0       0
 ---------------------------------------------------------------------------------
 Estimated maximum stack depth 0
 ---------------------------------------------------------------------------------
 (Depth) Function   	        Calls       Base Space   Used Autos Params    Refs
 ---------------------------------------------------------------------------------
 (1) _zero                                                 8     8      0   13242
                                             56 BANK0      8     8      0
                            ___flmul
                           ___xxtofl
                  _konwersja_na_bity
              _policz_przyspieszenie
 ---------------------------------------------------------------------------------
 (2) _policz_przyspieszenie                                8     4      4    2994
                                             35 BANK0      8     4      4
                            ___flmul
 ---------------------------------------------------------------------------------
 (2) _konwersja_na_bity                                   21    16      5    6825
                                             35 BANK0     21    16      5
                            ___flmul
                            ___flsub
                            ___fltol
                           ___xxtofl
 ---------------------------------------------------------------------------------
 (3) ___xxtofl                                            14    10      4     550
                                              0 BANK0     14    10      4
 ---------------------------------------------------------------------------------
 (3) ___fltol                                             11     7      4     381
                                              0 BANK0     11     7      4
 ---------------------------------------------------------------------------------
 (3) ___flsub                                              8     0      8    2485
                                             20 BANK0      8     0      8
                            ___fladd
                           ___xxtofl (ARG)
 ---------------------------------------------------------------------------------
 (4) ___fladd                                             20    12      8    2136
                                              0 BANK0     20    12      8
 ---------------------------------------------------------------------------------
 (3) ___flmul                                             26    18      8    2873
                                              9 BANK0     26    18      8
                          __Umul8_16
 ---------------------------------------------------------------------------------
 (4) __Umul8_16                                            9     7      2     799
                                              0 BANK0      9     7      2
 ---------------------------------------------------------------------------------
 Estimated maximum stack depth 4
 ---------------------------------------------------------------------------------

 Call Graph Graphs:

 _main (ROOT)

 _zero (ROOT)
   ___flmul
     __Umul8_16
   ___xxtofl
   _konwersja_na_bity
     ___flmul
     ___flsub
       ___fladd
       ___xxtofl (ARG)
     ___fltol
     ___xxtofl
   _policz_przyspieszenie
     ___flmul

 Address spaces:
Name               Size   Autos  Total    Cost      Usage
SFR3                 0      0       0       4        0.0%
BITSFR3              0      0       0       4        0.0%
SFR2                 0      0       0       5        0.0%
BITSFR2              0      0       0       5        0.0%
BANK1               5E      0       0       7        0.0%
BITBANK1            5E      0       0       6        0.0%
SFR1                 0      0       0       2        0.0%
BITSFR1              0      0       0       2        0.0%
BANK0               5E     40      5B       5       96.8%
BITBANK0            5E      0       0       4        0.0%
SFR0                 0      0       0       1        0.0%
BITSFR0              0      0       0       1        0.0%
COMMON               0      0       0       1        0.0%
BITCOMMON            0      0       0       0        0.0%
CODE                 0      0       0       0        0.0%
DATA                 0      0      5B       8        0.0%
ABS                  0      0      5B       3        0.0%
NULL                 0      0       0       0        0.0%
STACK                0      0       0       2        0.0%


Microchip Technology PIC Macro Assembler V2.32 build 20210201212658 
Symbol Table                                                                                   Thu May 13 15:57:41 2021

                             pc 0002                              l56 0E3D                              l57 0E3D  
                            fsr 0004             __Umul8_16@word_mpld 0026                             _GIE 005F  
                           fsr0 0004                             indf 0000                    ___flmul@aexp 003B  
                  ___flmul@bexp 003C                    ___flmul@sign 0036                    ___flmul@temp 0041  
                  ___flmul@prod 003D                    ___fltol@exp1 002A                            l1680 0E35  
                          l1682 0E38                            l1674 0E2B                            l1684 0E39  
                          l1676 0E33                            l1686 0E3C                            l1678 0E34  
                          STR_1 07F4                            _PEIE 005E                            i1l51 06FD  
                          i1l47 0622                            i1l83 07ED                            i1l68 0EC7  
                          _TMR1 000E                            _main 0E2B  __size_of_policz_przyspieszenie 003D  
                          btemp 007E                            _zero 05FC   __end_of_policz_przyspieszenie 0EC8  
                          start 0011                   ___fltol@sign1 0029                 __end_of___fladd 05FC  
                         ?_main 0020                           _CCPR1 0015                 __end_of___flmul 0374  
               __end_of___flsub 0E62                 __end_of___fltol 0F44                           ?_zero 0020  
                         i1l401 0549                           i1l411 058F                           i1l405 056D  
                         i1l422 05EF                           i1l414 05CD                           i1l423 05FB  
                         i1l280 0F2E                           i1l520 0F68                           i1l273 0F43  
                         i1l426 0E61                           i1l522 0FFF                           i1l283 0F43  
                         i1l380 03D7                           i1l533 0FC9                           i1l534 0FD5  
                         i1l526 0FAD                           i1l384 047E                           i1l393 05FB  
                         i1l482 02DF                           i1l386 0455                           i1l476 0373  
                         i1l495 0E78                           i1l488 0367                           i1l497 0E8A  
                         _TRISC 0087                           _putch 0000                           _wynik 0070  
                         pclath 000A                           status 0003                           wtemp0 007E  
               __initialization 0013                    __end_of_main 0E40                    __end_of_zero 0709  
                        ??_main 0000                          ??_zero 0058               _konwersja_na_bity 0709  
                        _CCP1IE 0462                          _CCP1IF 0062              ?_konwersja_na_bity 0043  
                        i1l1200 03CC                          i1l1210 03E5                          i1l1202 03CD  
                        i1l1220 03F9                          i1l1212 03E9                          i1l1204 03CF  
                        i1l1310 0574                          i1l1302 055F                          i1l1230 040D  
                        i1l1222 03FD                          i1l1214 03ED                          i1l1206 03DD  
                        i1l1320 0582                          i1l1312 0576                          i1l1304 0568  
                        i1l1232 0411                          i1l1224 0401                          i1l1216 03F1  
                        i1l1208 03E1                          i1l1240 0421                          i1l1400 0F23  
                        i1l1330 0599                          i1l1322 0586                          i1l1314 057B  
                        i1l1306 056C                          i1l1250 0464                          i1l1242 0422  
                        i1l1234 0415                          i1l1226 0405                          i1l1218 03F5  
                        i1l1170 0386                          i1l1162 0374                          i1l1402 0F33  
                        i1l1500 02AB                          i1l1420 0037                          i1l1412 0025  
                        i1l1340 05D7                          i1l1332 05A7                          i1l1324 058C  
                        i1l1308 0571                          i1l1316 057D                          i1l1260 0482  
                        i1l1252 0468                          i1l1244 0439                          i1l1236 0419  
                        i1l1228 0409                          i1l1172 038B                          i1l1180 039B  
                        i1l1164 037B                          i1l1404 0F38                          i1l1510 02C3  
                        i1l1502 02AF                          i1l1430 0053                          i1l1422 003C  
                        i1l1414 002C                          i1l1350 05EB                          i1l1342 05DF  
                        i1l1334 05AB                          i1l1270 04AB                          i1l1318 0581  
                        i1l1262 0487                          i1l1254 0469                          i1l1246 0459  
                        i1l1238 041D                          i1l1190 03B5                          i1l1182 03A3  
                        i1l1174 0390                          i1l1166 0381                          i1l1406 0E40  
                        i1l1360 0E6E                          i1l1520 02E4                          i1l1512 02C4  
                        i1l1504 02B0                          u200_20 0249                          i1l1440 0068  
                        i1l1432 0058                          i1l1424 0041                          i1l1416 0032  
                        i1l1352 05F6                          i1l1344 05E4                          i1l1336 05C9  
                        i1l1328 0594                          i1l1280 04BF                          i1l1272 04AF  
                        i1l1256 0472                          i1l1248 0462                          i1l1192 03B9  
                        i1l1184 03A8                          i1l1176 0398                          i1l1168 0385  
                        i1l1408 0E44                          i1l1600 0709                          i1l1362 0E72  
                        i1l1522 02E9                          i1l1530 031A                          i1l1514 02C8  
                        i1l1506 02B9                          i1l1450 0084                          i1l1442 006D  
                        i1l1434 005E                          i1l1426 0049                          i1l1418 0036  
                        i1l1354 05FA                          i1l1346 05E5                          i1l1338 05D2  
                        i1l1290 0527                          i1l1282 04C8                          i1l1274 04B8  
                        i1l1266 0490                          i1l1258 0476                          i1l1194 03BA  
                        i1l1186 03AE                          i1l1178 0399                          i1l1370 0EC8  
                        i1l1610 0756                          i1l1602 071C                          i1l1364 0E81  
                        i1l1356 0E65                          i1l1540 034D                          i1l1532 0327  
                        i1l1524 02F7                          i1l1516 02DC                          i1l1508 02BF  
                        i1l1460 00AD                          i1l1452 0089                          i1l1444 0075  
                        i1l1436 0062                          i1l1428 004B                          i1l1348 05E9  
                        i1l1292 052C                          i1l1276 04BA                          i1l1268 04A7  
                        i1l1284 04CD                          i1l1196 03BF                          i1l1188 03AF  
                        i1l1380 0EF4                          i1l1372 0ED5                          i1l1620 078A  
                        i1l1604 0748                          u200_25 0244                          i1l1366 0E86  
                        i1l1358 0E67                          i1l1542 035B                          i1l1534 0332  
                        i1l1526 02FB                          i1l1470 0146                          i1l1462 00C8  
                        i1l1446 0077                          i1l1438 0063                          i1l1286 04E3  
                        i1l1294 053B                          i1l1278 04BE                          i1l1198 03C4  
                        i1l1382 0EFC                          i1l1630 07DA                          i1l1622 07B6  
                        i1l1606 0748                          i1l1544 035F                          i1l1536 0341  
                        i1l1528 0314                          i1l1480 01A5                          i1l1472 014F  
                        i1l1464 00E4                          i1l1456 0092                          i1l1448 007F  
                        i1l1296 0551                          i1l1288 0521                          i1l1392 0F0A  
                        i1l1384 0EFE                          i1l1376 0EDE                          i1l1560 0F70  
                        i1l1552 0F47                          i1l1632 07E0                          i1l1624 07C3  
                        i1l1616 075A                          i1l1608 0750                          i1l1640 060E  
                        u201_21 0255                          i1l1546 0360                          i1l1538 034B  
                        u201_22 025C                          i1l1490 023D                          i1l1482 01BC  
                        i1l1474 015D                          i1l1466 010E                          i1l1458 00A0  
                        i1l1298 0556                          i1l1386 0F02                          i1l1394 0F1C  
                        i1l1378 0EF3                          i1l1570 0F92                          i1l1554 0F4C  
                        i1l1626 07CA                          i1l1618 0779                          i1l1650 0661  
                        i1l1642 0615                          i1l1634 05FC                          u201_23 0263  
                        i1l1548 036B                          i1l1492 0263                          i1l1484 01D9  
                        i1l1476 017A                          i1l1468 012A                          i1l1580 0FC3  
                        i1l1572 0F96                          i1l1564 0F79                          i1l1556 0F50  
                        i1l1628 07D0                          i1l1660 06B8                          i1l1652 067E  
                        i1l1644 061C                          i1l1636 0600                          i1l1494 028B  
                        i1l1486 0204                          i1l1478 0188                          i1l1590 0FF6  
                        i1l1582 0FCD                          i1l1574 0FA4                          i1l1566 0F7E  
                        i1l1558 0F60                          i1l1670 06FA                          i1l1654 0693  
                        i1l1662 06C8                          i1l1646 0628                          i1l1638 0606  
                        u210_20 02DC                          i1l1496 0294                          u202_20 0271  
                        i1l1488 0212                          u130_20 03E1                          u122_20 0385  
                        i1l1592 0FF7                          i1l1584 0FD7                          i1l1576 0FB4  
                        i1l1568 0F8B                          i1l1672 06FC                          i1l1656 06A2  
                        i1l1648 062F                          i1l1664 06C9                          u210_21 02DB  
                        u130_21 03E0                          u122_21 0384                          i1l1498 02A2  
                        i1l1586 0FED                          i1l1578 0FBF                          i1l1666 06CE  
                        i1l1658 06A8                          i1l1588 0FF2                          i1l1596 0E8B  
                        i1l1668 06D4                          u202_25 026C                          u211_20 02E3  
                        u131_20 0439                          u123_20 038B                          u211_21 02E2  
                        u203_21 027D                          u131_21 0438                          u123_21 038A  
                        u203_22 0284                          u203_23 028B                          u131_25 0435  
                        u212_20 02E9                          u132_20 0444                          u124_20 0390  
                        u220_20 0F70                          u212_21 02E8                          u140_21 0499  
                        u132_21 0442                          u124_21 038F                          u220_21 0F6F  
                        u140_22 04A0                          u140_23 04A7                          u204_25 028D  
                        u213_20 02FB                          u141_20 04AB                          u133_20 0445  
                        u125_20 03AE                          u213_21 02FA                          u141_21 04AA  
                        u125_21 03AD                          u205_25 02A4                          u221_25 0F83  
                        u214_20 030A                          u206_20 02AF                          u150_20 0556  
                        u142_20 04AF                          u134_20 0459                          u126_20 03B9  
                        u230_20 0FF2                          u222_20 0F91                          u206_21 02AE  
                        u150_21 0555                          u142_21 04AE                          u134_21 0458  
                        u126_21 03B8                          u230_21 0FF1                          u222_21 0F90  
                        u214_25 0305                          u215_20 0327                          u143_20 04BE  
                        u135_20 0468                          u127_20 03BF                          u231_20 0FF6  
                        u215_21 0326                          u143_21 04BD                          u135_21 0467  
                        u127_21 03BE                          u231_21 0FF5                          u215_25 0323  
                        u207_25 02B2                          u151_25 0561                          u223_25 0FA5  
                        u216_20 0341                          u208_20 02C3                          u160_20 05AB  
                        u152_20 056C                          u128_20 03C4                          u224_20 0FB3  
                        u232_20 07C3                          u240_20 06CE                          u216_21 0340  
                        u208_21 02C2                          u160_21 05AA                          u152_21 056B  
                        u128_21 03C3                          u224_21 0FB2                          u232_21 07C2  
                        u240_21 06CD                          u216_25 033D                          u144_25 04C1  
                        u136_25 046B                          u232_25 07BF                          u217_20 035F  
                        u209_20 02C8                          u161_20 05BA                          u153_20 0571  
                        u145_20 04E3                          u137_20 047E                          u129_20 03DD  
                        u233_20 07ED                          u241_20 06D4                          u217_21 035E  
                        u209_21 02C7                          u153_21 0570                          u145_21 04E2  
                        u137_21 047D                          u129_21 03DC                          u233_21 07EC  
                        u241_21 06D3                          u145_23 04DF                          u161_25 05B5  
                        u225_25 0FB8                          u233_25 07E9                          u170_20 0E86  
                        u162_20 05C9                          u154_20 057B                          u138_20 0482  
                        u226_20 0FC3                          u218_20 0F4C                          u234_20 0600  
                        u170_21 0E85                          u162_21 05C8                          u154_21 057A  
                        u146_21 04FA                          u138_21 0481                          u226_21 0FC2  
                        u218_21 0F4B                          u234_21 05FF                          u146_22 04FB  
                        u146_23 0500                          u146_24 0501                          u146_25 0506  
                        u146_26 0507                          u163_20 05D2                          u155_20 0581  
                        u147_20 050E                          u139_20 0487                          u171_20 0ED5  
                        u227_20 0FC9                          u219_20 0F50                          u235_20 0606  
                        u163_21 05D1                          u155_21 0580                          u147_21 050F  
                        u139_21 0486                          u171_21 0ED4                          u227_21 0FC8  
                        u219_21 0F4F                          u235_21 0605                          u147_22 0514  
                        u147_23 0515                          u164_20 05D7                          u156_20 0586  
                        u148_20 052C                          u180_20 0F38                          u172_20 0EEC  
                        u228_20 0FCD                          u236_20 060E                          u164_21 05D6  
                        u156_21 0585                          u148_21 052B                          u180_21 0F37  
                        u228_21 0FCC                          u236_21 060D                          u172_25 0EE7  
                        u181_20 0036                          u165_20 05E4                          u157_20 058C  
                        u149_20 0551                          u173_20 0F02                          u229_20 0FE2  
                        u237_20 061C                          u181_21 0035                          u165_21 05E3  
                        u157_21 058B                          u149_21 0550                          u173_21 0F01  
                        u237_21 061B                          u229_25 0FDD                          u182_20 003C  
                        u166_20 05E9                          u158_20 0593                          u174_20 0F09  
                        u238_20 062F                          u190_21 00F2                          u182_21 003B  
                        u166_21 05E8                          u158_21 0592                          u174_21 0F08  
                        u238_21 062E                          u190_22 00F9                          u190_23 0100  
                        u183_20 0041                          u167_20 05FA                          u159_20 0599  
                        u191_21 011C                          u183_21 0040                          u167_21 05F9  
                        u159_21 0598                          u239_21 063E                          u191_22 0123  
                        u239_22 063F                          u191_23 012A                          u239_23 0644  
                        u239_24 0645                          u175_25 0F0B                          u239_25 064A  
                        u239_26 064B                          u168_20 0E72                          u184_20 0062  
                        u176_20 0F1B                          u168_21 0E71                          u192_21 0138  
                        u184_21 0061                          u176_21 0F1A                          u192_22 013F  
                        u192_23 0146                          u185_20 0068                          u177_20 0F22  
                        u185_21 0067                          u177_21 0F21                          u169_25 0E79  
                        u193_25 0148                          u186_20 006D                          u194_21 016C  
                        u186_21 006C                          u194_22 0173                          u194_23 017A  
                        u178_25 0F25                          u187_20 0084                          u179_20 0F33  
                        u195_21 0197                          u187_21 0083                          u179_21 0F32  
                        u195_22 019E                          u195_23 01A5                          u188_20 0089  
                        u188_21 0088                          u196_25 01A7                          u197_21 01CB  
                        u189_21 00D6                          u197_22 01D2                          u189_22 00DD  
                        u197_23 01D9                          u189_23 00E4                          u198_21 01F6  
                        u198_22 01FD                          u198_23 0204                          u199_21 0221  
                        u199_22 0228                          u199_23 022F                          _TMR1IE 0460  
                        _TMR1IF 0060                          _TMR1CS 0081                          _TMR1ON 0080  
              __end_of___xxtofl 1000             ??_konwersja_na_bity 0048                          _Obrot1 006C  
                        _Obrot2 0068                       ??___fladd 0028                       ??___flmul 0031  
                     ??___flsub 0000                       ??___fltol 0024                          _przysp 0060  
     __end_of_konwersja_na_bity 07EE              __size_of__Umul8_16 0029                          saved_w 007E  
                  ___xxtofl@arg 002A                    ___xxtofl@exp 0029                    ___xxtofl@val 0020  
       __end_of__initialization 0022                      ___fltol@f1 0020                  __pcstackCOMMON 0000  
                  __pidataBANK0 0002              konwersja_na_bity@i 0054              konwersja_na_bity@n 0050  
                    __pbssBANK0 0060               __end_of__Umul8_16 0E8B                      __pmaintext 0E2B  
          _konwersja_na_bity$90 004E                      __pintentry 0004                         _CCP1CON 0017  
    __size_of_konwersja_na_bity 00E5                       ?___xxtofl 0020                      __stringtab 07EE  
         _policz_przyspieszenie 0E8B                         ___fladd 0374                         ___flmul 0025  
                       ___flsub 0E40                         ___fltol 0EC8                         __ptext1 05FC  
                       __ptext2 0E8B                         __ptext3 0709                         __ptext4 0F44  
                       __ptext5 0EC8                         __ptext6 0E40                         __ptext7 0374  
                       __ptext8 0025                         __ptext9 0E62                         _counter 0079  
                    ??___xxtofl 0024                         _roznica 0064                         clrloop0 07F8  
          end_of_initialization 0022                     ___fladd@grs 0033       konwersja_na_bity@cz_ulamk 004A  
         konwersja_na_bity@wart 0043                   ___xxtofl@sign 0028                     ___flmul@grs 0037  
        ?_policz_przyspieszenie 0043             start_initialization 0013                       __Umul8_16 0E62  
                   __pdataBANK0 0079                       ___fladd@a 0024                       ___fladd@b 0020  
                     ___flmul@a 002D                       ___flmul@b 0029                       ___flsub@a 0034  
                     ___flsub@b 0038                       ___latbits 0001                   __pcstackBANK0 0020  
             __size_of___xxtofl 00BC                        ?___fladd 0020                        ?___flmul 0029  
                      ?___flsub 0034                        ?___fltol 0020                      ?__Umul8_16 0020  
                     __pstrings 07EE               interrupt_function 0004                       clear_ram0 07F7  
                   __stringbase 07F3         ??_policz_przyspieszenie 0000                     ??__Umul8_16 0022  
              __size_of___fladd 0288                __size_of___flmul 034F                __size_of___flsub 0022  
              __size_of___fltol 007C              __end_of__stringtab 07F4                        ___xxtofl 0F44  
                 __size_of_main 0015                   __size_of_zero 010D          policz_przyspieszenie@t 0043  
                      intlevel1 0000                       stringcode 07EE       _policz_przyspieszenie$537 0047  
      konwersja_na_bity@cz_calk 0056          __Umul8_16@multiplicand 0020                        stringdir 07EE  
                      stringtab 07EE                   ___fladd@signs 0030                    ___fladd@aexp 0031  
                  ___fladd@bexp 0032            __Umul8_16@multiplier 0028          konwersja_na_bity@wynik 0047  
             __Umul8_16@product 0024  
