

Microchip MPLAB XC8 Assembler V2.32 build 20210201212658 
                                                                                               Wed May 12 11:56:08 2021

Microchip MPLAB XC8 C Compiler v2.32 (Free license) build 20210201212658 Og1 
     1                           	processor	16F74
     2                           	pagewidth 120
     3                           	opt	flic
     4                           	psect	strings,global,class=STRING,delta=2,noexec
     5                           	psect	cinit,global,class=CODE,merge=1,delta=2
     6                           	psect	cstackCOMMON,global,class=COMMON,space=1,delta=1,noexec
     7                           	psect	cstackBANK0,global,class=BANK0,space=1,delta=1,noexec
     8                           	psect	maintext,global,class=CODE,split=1,delta=2
     9                           	psect	text1,local,class=CODE,merge=1,delta=2,group=1
    10                           	psect	text2,local,class=CODE,merge=1,delta=2,group=3
    11                           	psect	text3,local,class=CODE,merge=1,delta=2,group=2
    12                           	psect	text4,local,class=CODE,merge=1,delta=2,group=2
    13                           	psect	text5,local,class=CODE,merge=1,delta=2,group=2
    14                           	psect	text6,local,class=CODE,merge=1,delta=2,group=2
    15                           	psect	text7,local,class=CODE,merge=1,delta=2,group=2
    16                           	psect	text8,local,class=CODE,merge=1,delta=2,group=2
    17                           	psect	text9,local,class=CODE,merge=1,delta=2,group=2
    18                           	psect	text10,local,class=CODE,merge=1,delta=2
    19                           	psect	intentry,global,class=CODE,delta=2
    20                           	dabs	1,0x7E,2
    21  0000                     
    22                           ; Version 2.20
    23                           ; Generated 12/02/2020 GMT
    24                           ; 
    25                           ; Copyright © 2020, Microchip Technology Inc. and its subsidiaries ("Microchip")
    26                           ; All rights reserved.
    27                           ; 
    28                           ; This software is developed by Microchip Technology Inc. and its subsidiaries ("Microch
      +                          ip").
    29                           ; 
    30                           ; Redistribution and use in source and binary forms, with or without modification, are
    31                           ; permitted provided that the following conditions are met:
    32                           ; 
    33                           ;     1. Redistributions of source code must retain the above copyright notice, this lis
      +                          t of
    34                           ;        conditions and the following disclaimer.
    35                           ; 
    36                           ;     2. Redistributions in binary form must reproduce the above copyright notice, this 
      +                          list
    37                           ;        of conditions and the following disclaimer in the documentation and/or other
    38                           ;        materials provided with the distribution.
    39                           ; 
    40                           ;     3. Microchip's name may not be used to endorse or promote products derived from th
      +                          is
    41                           ;        software without specific prior written permission.
    42                           ; 
    43                           ; THIS SOFTWARE IS PROVIDED BY MICROCHIP "AS IS" AND ANY EXPRESS OR IMPLIED WARRANTIES,
    44                           ; INCLUDING, BUT NOT LIMITED TO, THE IMPLIED WARRANTIES OF MERCHANTABILITY AND FITNESS F
      +                          OR
    45                           ; PURPOSE ARE DISCLAIMED.  IN NO EVENT SHALL MICROCHIP BE LIABLE FOR ANY DIRECT, INDIREC
      +                          T,
    46                           ; INCIDENTAL, SPECIAL, EXEMPLARY, OR CONSEQUENTIAL DAMAGES (INCLUDING BUT NOT LIMITED TO
    47                           ; PROCUREMENT OF SUBSTITUTE GOODS OR SERVICES; LOSS OF USE, DATA OR PROFITS; OR BUSINESS
    48                           ; INTERRUPTION) HOWSOEVER CAUSED AND ON ANY THEORY OF LIABILITY, WHETHER IN CONTRACT, ST
      +                          RICT
    49                           ; LIABILITY, OR TORT (INCLUDING NEGLIGENCE OR OTHERWISE) ARISING IN ANY WAY OUT OF THE U
      +                          SE OF
    50                           ; THIS SOFTWARE, EVEN IF ADVISED OF THE POSSIBILITY OF SUCH DAMAGE.
    51                           ; 
    52                           ; 
    53                           ; Code-generator required, PIC16F74 Definitions
    54                           ; 
    55                           ; SFR Addresses
    56  0000                     	;# 
    57  0001                     	;# 
    58  0002                     	;# 
    59  0003                     	;# 
    60  0004                     	;# 
    61  0005                     	;# 
    62  0006                     	;# 
    63  0007                     	;# 
    64  0008                     	;# 
    65  0009                     	;# 
    66  000A                     	;# 
    67  000B                     	;# 
    68  000C                     	;# 
    69  000D                     	;# 
    70  000E                     	;# 
    71  000E                     	;# 
    72  000F                     	;# 
    73  0010                     	;# 
    74  0011                     	;# 
    75  0012                     	;# 
    76  0013                     	;# 
    77  0014                     	;# 
    78  0015                     	;# 
    79  0015                     	;# 
    80  0016                     	;# 
    81  0017                     	;# 
    82  0018                     	;# 
    83  0019                     	;# 
    84  001A                     	;# 
    85  001B                     	;# 
    86  001B                     	;# 
    87  001C                     	;# 
    88  001D                     	;# 
    89  001E                     	;# 
    90  001F                     	;# 
    91  0081                     	;# 
    92  0085                     	;# 
    93  0086                     	;# 
    94  0087                     	;# 
    95  0088                     	;# 
    96  0089                     	;# 
    97  008C                     	;# 
    98  008D                     	;# 
    99  008E                     	;# 
   100  0092                     	;# 
   101  0093                     	;# 
   102  0094                     	;# 
   103  0098                     	;# 
   104  0099                     	;# 
   105  009F                     	;# 
   106  010C                     	;# 
   107  010D                     	;# 
   108  010E                     	;# 
   109  010F                     	;# 
   110  018C                     	;# 
   111                           
   112                           	psect	strings
   113  0800                     __pstrings:
   114  0800                     stringtab:
   115  0800                     __stringtab:
   116  0800                     stringcode:	
   117                           ;	String table - string pointers are 1 byte each
   118                           
   119  0800                     stringdir:
   120  0800  3008               	movlw	high stringdir
   121  0801  008A               	movwf	10
   122  0802  0804               	movf	4,w
   123  0803  0A84               	incf	4,f
   124  0804  0782               	addwf	2,f
   125  0805                     __stringbase:
   126  0805  3400               	retlw	0
   127  0806                     __end_of__stringtab:
   128  0806                     _dpowers:
   129  0806  3401               	retlw	1
   130  0807  3400               	retlw	0
   131  0808  3400               	retlw	0
   132  0809  3400               	retlw	0
   133  080A  340A               	retlw	10
   134  080B  3400               	retlw	0
   135  080C  3400               	retlw	0
   136  080D  3400               	retlw	0
   137  080E  3464               	retlw	100
   138  080F  3400               	retlw	0
   139  0810  3400               	retlw	0
   140  0811  3400               	retlw	0
   141  0812  34E8               	retlw	232
   142  0813  3403               	retlw	3
   143  0814  3400               	retlw	0
   144  0815  3400               	retlw	0
   145  0816  3410               	retlw	16
   146  0817  3427               	retlw	39
   147  0818  3400               	retlw	0
   148  0819  3400               	retlw	0
   149  081A  34A0               	retlw	160
   150  081B  3486               	retlw	134
   151  081C  3401               	retlw	1
   152  081D  3400               	retlw	0
   153  081E  3440               	retlw	64
   154  081F  3442               	retlw	66
   155  0820  340F               	retlw	15
   156  0821  3400               	retlw	0
   157  0822  3480               	retlw	128
   158  0823  3496               	retlw	150
   159  0824  3498               	retlw	152
   160  0825  3400               	retlw	0
   161  0826  3400               	retlw	0
   162  0827  34E1               	retlw	225
   163  0828  34F5               	retlw	245
   164  0829  3405               	retlw	5
   165  082A  3400               	retlw	0
   166  082B  34CA               	retlw	202
   167  082C  349A               	retlw	154
   168  082D  343B               	retlw	59
   169  082E                     __end_of_dpowers:
   170  0015                     _CCPR1	set	21
   171  0017                     _CCP1CON	set	23
   172  003A                     _RC2	set	58
   173  0080                     _TMR1ON	set	128
   174  0081                     _TMR1CS	set	129
   175  0062                     _CCP1IF	set	98
   176  0087                     _TRISC	set	135
   177  082E                     STR_1:
   178  082E  3425               	retlw	37	;'%'
   179  082F  346C               	retlw	108	;'l'
   180  0830  3464               	retlw	100	;'d'
   181  0831  3400               	retlw	0
   182                           
   183                           	psect	cinit
   184  000F                     start_initialization:	
   185                           ; #config settings
   186                           
   187  000F                     __initialization:
   188  000F                     end_of_initialization:	
   189                           ;End of C runtime variable initialization code
   190                           
   191  000F                     __end_of__initialization:
   192  000F  0183               	clrf	3
   193  0010  118A  2F15         	ljmp	_main	;jump to C main() function
   194                           
   195                           	psect	cstackCOMMON
   196  0000                     __pcstackCOMMON:
   197  0000                     ??_putch:
   198  0000                     ??_main:	
   199                           ; 1 bytes @ 0x0
   200                           
   201  0000                     ??___flsub:	
   202                           ; 1 bytes @ 0x0
   203                           
   204                           
   205                           	psect	cstackBANK0
   206  0020                     __pcstackBANK0:	
   207                           ; 1 bytes @ 0x0
   208                           
   209  0020                     ?_putch:
   210  0020                     ?_zero:	
   211                           ; 1 bytes @ 0x0
   212                           
   213  0020                     ??_zero:	
   214                           ; 1 bytes @ 0x0
   215                           
   216  0020                     ?_main:	
   217                           ; 1 bytes @ 0x0
   218                           
   219  0020                     putch@c:	
   220                           ; 1 bytes @ 0x0
   221                           
   222                           
   223                           ; 1 bytes @ 0x0
   224  0020                     	ds	2
   225  0022                     ?__Umul8_16:
   226  0022                     ?___lldiv:	
   227                           ; 2 bytes @ 0x2
   228                           
   229  0022                     ?___fladd:	
   230                           ; 4 bytes @ 0x2
   231                           
   232  0022                     ?___xxtofl:	
   233                           ; 4 bytes @ 0x2
   234                           
   235  0022                     __Umul8_16@multiplicand:	
   236                           ; 4 bytes @ 0x2
   237                           
   238  0022                     ___lldiv@divisor:	
   239                           ; 1 bytes @ 0x2
   240                           
   241  0022                     ___fladd@b:	
   242                           ; 4 bytes @ 0x2
   243                           
   244  0022                     ___xxtofl@val:	
   245                           ; 4 bytes @ 0x2
   246                           
   247                           
   248                           ; 4 bytes @ 0x2
   249  0022                     	ds	2
   250  0024                     ??__Umul8_16:
   251                           
   252                           ; 1 bytes @ 0x4
   253  0024                     	ds	2
   254  0026                     ??___xxtofl:
   255  0026                     __Umul8_16@product:	
   256                           ; 1 bytes @ 0x6
   257                           
   258  0026                     ___lldiv@dividend:	
   259                           ; 2 bytes @ 0x6
   260                           
   261  0026                     ___fladd@a:	
   262                           ; 4 bytes @ 0x6
   263                           
   264                           
   265                           ; 4 bytes @ 0x6
   266  0026                     	ds	2
   267  0028                     __Umul8_16@word_mpld:
   268                           
   269                           ; 2 bytes @ 0x8
   270  0028                     	ds	2
   271  002A                     ??___lldiv:
   272  002A                     ??___fladd:	
   273                           ; 1 bytes @ 0xA
   274                           
   275  002A                     __Umul8_16@multiplier:	
   276                           ; 1 bytes @ 0xA
   277                           
   278  002A                     ___xxtofl@sign:	
   279                           ; 1 bytes @ 0xA
   280                           
   281                           
   282                           ; 1 bytes @ 0xA
   283  002A                     	ds	1
   284  002B                     ?___flmul:
   285  002B                     ___xxtofl@exp:	
   286                           ; 4 bytes @ 0xB
   287                           
   288  002B                     ___lldiv@quotient:	
   289                           ; 1 bytes @ 0xB
   290                           
   291  002B                     ___flmul@b:	
   292                           ; 4 bytes @ 0xB
   293                           
   294                           
   295                           ; 4 bytes @ 0xB
   296  002B                     	ds	1
   297  002C                     ___xxtofl@arg:
   298                           
   299                           ; 4 bytes @ 0xC
   300  002C                     	ds	3
   301  002F                     ___lldiv@counter:
   302  002F                     ___flmul@a:	
   303                           ; 1 bytes @ 0xF
   304                           
   305                           
   306                           ; 4 bytes @ 0xF
   307  002F                     	ds	1
   308  0030                     ?___llmod:
   309  0030                     ___llmod@divisor:	
   310                           ; 4 bytes @ 0x10
   311                           
   312                           
   313                           ; 4 bytes @ 0x10
   314  0030                     	ds	2
   315  0032                     ___fladd@signs:
   316                           
   317                           ; 1 bytes @ 0x12
   318  0032                     	ds	1
   319  0033                     ??___flmul:
   320  0033                     ___fladd@aexp:	
   321                           ; 1 bytes @ 0x13
   322                           
   323                           
   324                           ; 1 bytes @ 0x13
   325  0033                     	ds	1
   326  0034                     ___fladd@bexp:
   327  0034                     ___llmod@dividend:	
   328                           ; 1 bytes @ 0x14
   329                           
   330                           
   331                           ; 4 bytes @ 0x14
   332  0034                     	ds	1
   333  0035                     ___fladd@grs:
   334                           
   335                           ; 1 bytes @ 0x15
   336  0035                     	ds	1
   337  0036                     ?___flsub:
   338  0036                     ___flsub@a:	
   339                           ; 4 bytes @ 0x16
   340                           
   341                           
   342                           ; 4 bytes @ 0x16
   343  0036                     	ds	2
   344  0038                     ??___llmod:
   345  0038                     ___flmul@sign:	
   346                           ; 1 bytes @ 0x18
   347                           
   348                           
   349                           ; 1 bytes @ 0x18
   350  0038                     	ds	1
   351  0039                     ___llmod@counter:
   352  0039                     ___flmul@grs:	
   353                           ; 1 bytes @ 0x19
   354                           
   355                           
   356                           ; 4 bytes @ 0x19
   357  0039                     	ds	1
   358  003A                     ?_printf:
   359  003A                     ___flsub@b:	
   360                           ; 2 bytes @ 0x1A
   361                           
   362                           
   363                           ; 4 bytes @ 0x1A
   364  003A                     	ds	3
   365  003D                     ___flmul@aexp:
   366                           
   367                           ; 1 bytes @ 0x1D
   368  003D                     	ds	1
   369  003E                     ??_printf:
   370  003E                     ___flmul@bexp:	
   371                           ; 1 bytes @ 0x1E
   372                           
   373                           
   374                           ; 1 bytes @ 0x1E
   375  003E                     	ds	1
   376  003F                     ___flmul@prod:
   377                           
   378                           ; 4 bytes @ 0x1F
   379  003F                     	ds	4
   380  0043                     printf@prec:
   381  0043                     ___flmul@temp:	
   382                           ; 2 bytes @ 0x23
   383                           
   384                           
   385                           ; 2 bytes @ 0x23
   386  0043                     	ds	2
   387  0045                     printf@f:
   388                           
   389                           ; 1 bytes @ 0x25
   390  0045                     	ds	1
   391  0046                     printf@ap:
   392                           
   393                           ; 1 bytes @ 0x26
   394  0046                     	ds	1
   395  0047                     printf@flag:
   396                           
   397                           ; 1 bytes @ 0x27
   398  0047                     	ds	1
   399  0048                     printf@val:
   400                           
   401                           ; 4 bytes @ 0x28
   402  0048                     	ds	4
   403  004C                     printf@c:
   404                           
   405                           ; 1 bytes @ 0x2C
   406  004C                     	ds	1
   407  004D                     _main$504:
   408                           
   409                           ; 4 bytes @ 0x2D
   410  004D                     	ds	4
   411  0051                     main@przysp:
   412                           
   413                           ; 4 bytes @ 0x31
   414  0051                     	ds	4
   415  0055                     main@Obrot1:
   416                           
   417                           ; 2 bytes @ 0x35
   418  0055                     	ds	2
   419  0057                     main@Obrot2:
   420                           
   421                           ; 2 bytes @ 0x37
   422  0057                     	ds	2
   423  0059                     main@roznica:
   424                           
   425                           ; 4 bytes @ 0x39
   426  0059                     	ds	4
   427  005D                     main@counter:
   428                           
   429                           ; 2 bytes @ 0x3D
   430  005D                     	ds	2
   431                           
   432                           	psect	maintext
   433  0715                     __pmaintext:	
   434 ;;
   435 ;;Main: autosize = 0, tempsize = 0, incstack = 0, save=0
   436 ;;
   437 ;; *************** function _main *****************
   438 ;; Defined at:
   439 ;;		line 22 in file "main.c"
   440 ;; Parameters:    Size  Location     Type
   441 ;;		None
   442 ;; Auto vars:     Size  Location     Type
   443 ;;  roznica         4   57[BANK0 ] PTR void [1]
   444 ;;  przysp          4   49[BANK0 ] PTR void [1]
   445 ;;  counter         2   61[BANK0 ] int 
   446 ;;  Obrot2          2   55[BANK0 ] int 
   447 ;;  Obrot1          2   53[BANK0 ] int 
   448 ;; Return value:  Size  Location     Type
   449 ;;                  1    wreg      void 
   450 ;; Registers used:
   451 ;;		wreg, fsr0l, fsr0h, status,2, status,0, btemp+1, pclath, cstack
   452 ;; Tracked objects:
   453 ;;		On entry : B00/0
   454 ;;		On exit  : 0/0
   455 ;;		Unchanged: 0/0
   456 ;; Data sizes:     COMMON   BANK0   BANK1
   457 ;;      Params:         0       0       0
   458 ;;      Locals:         0      18       0
   459 ;;      Temps:          0       0       0
   460 ;;      Totals:         0      18       0
   461 ;;Total ram usage:       18 bytes
   462 ;; Hardware stack levels required when called: 3
   463 ;; This function calls:
   464 ;;		___flmul
   465 ;;		___flsub
   466 ;;		___xxtofl
   467 ;;		_printf
   468 ;; This function is called by:
   469 ;;		Startup code after reset
   470 ;; This function uses a non-reentrant model
   471 ;;
   472                           
   473                           
   474                           ;psect for function _main
   475  0715                     _main:
   476  0715                     l1662:	
   477                           ;incstack = 0
   478                           ; Regs used in _main: [wreg-fsr0h+status,2+status,0+btemp+1+pclath+cstack]
   479                           
   480                           
   481                           ;main.c: 23:     int counter = 1;
   482  0715  3001               	movlw	1
   483  0716  1283               	bcf	3,5	;RP0=0, select bank0
   484  0717  1303               	bcf	3,6	;RP1=0, select bank0
   485  0718  00DD               	movwf	main@counter
   486  0719  3000               	movlw	0
   487  071A  00DE               	movwf	main@counter+1
   488  071B                     l1664:
   489                           
   490                           ;main.c: 24:     int Obrot1 = 0;
   491  071B  01D5               	clrf	main@Obrot1
   492  071C  01D6               	clrf	main@Obrot1+1
   493  071D                     l1666:
   494                           
   495                           ;main.c: 25:     int Obrot2 = 0;
   496  071D  01D7               	clrf	main@Obrot2
   497  071E  01D8               	clrf	main@Obrot2+1
   498                           
   499                           ;main.c: 27:     double przysp = 0;
   500  071F  3000               	movlw	0
   501  0720  00D4               	movwf	main@przysp+3
   502  0721  3000               	movlw	0
   503  0722  00D3               	movwf	main@przysp+2
   504  0723  3000               	movlw	0
   505  0724  00D2               	movwf	main@przysp+1
   506  0725  3000               	movlw	0
   507  0726  00D1               	movwf	main@przysp
   508                           
   509                           ;main.c: 28:     TRISC = 0b00000100;;
   510  0727  3004               	movlw	4
   511  0728  1683               	bsf	3,5	;RP0=1, select bank1
   512  0729  1303               	bcf	3,6	;RP1=0, select bank1
   513  072A  0087               	movwf	7	;volatile
   514  072B                     l1668:
   515                           
   516                           ;main.c: 29:     TMR1CS = 0;
   517  072B  1283               	bcf	3,5	;RP0=0, select bank0
   518  072C  1303               	bcf	3,6	;RP1=0, select bank0
   519  072D  1090               	bcf	16,1	;volatile
   520  072E                     l1670:
   521                           
   522                           ;main.c: 30:     TMR1ON = 1;
   523  072E  1410               	bsf	16,0	;volatile
   524                           
   525                           ;main.c: 31:     CCP1CON = 0b00000101;;
   526  072F  3005               	movlw	5
   527  0730  0097               	movwf	23	;volatile
   528  0731                     l1672:
   529                           
   530                           ;main.c: 33:         if(RC2 == 1){
   531  0731  1D07               	btfss	7,2	;volatile
   532  0732  2F34               	goto	u2531
   533  0733  2F35               	goto	u2530
   534  0734                     u2531:
   535  0734  2F31               	goto	l1672
   536  0735                     u2530:
   537  0735                     l1674:
   538                           
   539                           ;main.c: 34:             if(counter == 1)
   540  0735  035D               	decf	main@counter,w
   541  0736  045E               	iorwf	main@counter+1,w
   542  0737  1D03               	btfss	3,2
   543  0738  2F3A               	goto	u2541
   544  0739  2F3B               	goto	u2540
   545  073A                     u2541:
   546  073A  2F40               	goto	l1678
   547  073B                     u2540:
   548  073B                     l1676:
   549                           
   550                           ;main.c: 35:                 Obrot1 = (int) CCPR1;
   551  073B  0816               	movf	22,w	;volatile
   552  073C  00D6               	movwf	main@Obrot1+1
   553  073D  0815               	movf	21,w	;volatile
   554  073E  00D5               	movwf	main@Obrot1
   555  073F  2F4B               	goto	l30
   556  0740                     l1678:
   557  0740  3002               	movlw	2
   558  0741  065D               	xorwf	main@counter,w
   559  0742  045E               	iorwf	main@counter+1,w
   560  0743  1D03               	btfss	3,2
   561  0744  2F46               	goto	u2551
   562  0745  2F47               	goto	u2550
   563  0746                     u2551:
   564  0746  2F4B               	goto	l30
   565  0747                     u2550:
   566  0747                     l1680:
   567                           
   568                           ;main.c: 37:                 Obrot2 = (int) CCPR1;
   569  0747  0816               	movf	22,w	;volatile
   570  0748  00D8               	movwf	main@Obrot2+1
   571  0749  0815               	movf	21,w	;volatile
   572  074A  00D7               	movwf	main@Obrot2
   573  074B                     l30:
   574                           
   575                           ;main.c: 38:             counter++;
   576  074B  3001               	movlw	1
   577  074C  07DD               	addwf	main@counter,f
   578  074D  1803               	skipnc
   579  074E  0ADE               	incf	main@counter+1,f
   580  074F  3000               	movlw	0
   581  0750  07DE               	addwf	main@counter+1,f
   582  0751                     l1682:
   583                           
   584                           ;main.c: 39:             if(counter == 3){
   585  0751  3003               	movlw	3
   586  0752  065D               	xorwf	main@counter,w
   587  0753  045E               	iorwf	main@counter+1,w
   588  0754  1D03               	btfss	3,2
   589  0755  2F57               	goto	u2561
   590  0756  2F58               	goto	u2560
   591  0757                     u2561:
   592  0757  2F31               	goto	l1672
   593  0758                     u2560:
   594  0758                     l1684:
   595                           
   596                           ;main.c: 40:                 roznica = (double)Obrot2 - (double)Obrot1;
   597  0758  0855               	movf	main@Obrot1,w
   598  0759  00A2               	movwf	___xxtofl@val
   599  075A  0856               	movf	main@Obrot1+1,w
   600  075B  00A3               	movwf	___xxtofl@val+1
   601  075C  3000               	movlw	0
   602  075D  1BA3               	btfsc	___xxtofl@val+1,7
   603  075E  30FF               	movlw	255
   604  075F  00A4               	movwf	___xxtofl@val+2
   605  0760  00A5               	movwf	___xxtofl@val+3
   606  0761  3001               	movlw	1
   607  0762  158A  2744  118A   	fcall	___xxtofl
   608  0765  1283               	bcf	3,5	;RP0=0, select bank0
   609  0766  1303               	bcf	3,6	;RP1=0, select bank0
   610  0767  0825               	movf	?___xxtofl+3,w
   611  0768  00B9               	movwf	___flsub@a+3
   612  0769  0824               	movf	?___xxtofl+2,w
   613  076A  00B8               	movwf	___flsub@a+2
   614  076B  0823               	movf	?___xxtofl+1,w
   615  076C  00B7               	movwf	___flsub@a+1
   616  076D  0822               	movf	?___xxtofl,w
   617  076E  00B6               	movwf	___flsub@a
   618  076F  0857               	movf	main@Obrot2,w
   619  0770  00A2               	movwf	___xxtofl@val
   620  0771  0858               	movf	main@Obrot2+1,w
   621  0772  00A3               	movwf	___xxtofl@val+1
   622  0773  3000               	movlw	0
   623  0774  1BA3               	btfsc	___xxtofl@val+1,7
   624  0775  30FF               	movlw	255
   625  0776  00A4               	movwf	___xxtofl@val+2
   626  0777  00A5               	movwf	___xxtofl@val+3
   627  0778  3001               	movlw	1
   628  0779  158A  2744  118A   	fcall	___xxtofl
   629  077C  1283               	bcf	3,5	;RP0=0, select bank0
   630  077D  1303               	bcf	3,6	;RP1=0, select bank0
   631  077E  0825               	movf	?___xxtofl+3,w
   632  077F  00BD               	movwf	___flsub@b+3
   633  0780  0824               	movf	?___xxtofl+2,w
   634  0781  00BC               	movwf	___flsub@b+2
   635  0782  0823               	movf	?___xxtofl+1,w
   636  0783  00BB               	movwf	___flsub@b+1
   637  0784  0822               	movf	?___xxtofl,w
   638  0785  00BA               	movwf	___flsub@b
   639  0786  158A  263B  118A   	fcall	___flsub
   640  0789  1283               	bcf	3,5	;RP0=0, select bank0
   641  078A  1303               	bcf	3,6	;RP1=0, select bank0
   642  078B  0839               	movf	?___flsub+3,w
   643  078C  00DC               	movwf	main@roznica+3
   644  078D  0838               	movf	?___flsub+2,w
   645  078E  00DB               	movwf	main@roznica+2
   646  078F  0837               	movf	?___flsub+1,w
   647  0790  00DA               	movwf	main@roznica+1
   648  0791  0836               	movf	?___flsub,w
   649  0792  00D9               	movwf	main@roznica
   650                           
   651                           ;main.c: 41:                 roznica *= 0.0000002;;
   652  0793  3034               	movlw	52
   653  0794  00AE               	movwf	___flmul@b+3
   654  0795  3056               	movlw	86
   655  0796  00AD               	movwf	___flmul@b+2
   656  0797  30BF               	movlw	191
   657  0798  00AC               	movwf	___flmul@b+1
   658  0799  3095               	movlw	149
   659  079A  00AB               	movwf	___flmul@b
   660  079B  085C               	movf	main@roznica+3,w
   661  079C  00B2               	movwf	___flmul@a+3
   662  079D  085B               	movf	main@roznica+2,w
   663  079E  00B1               	movwf	___flmul@a+2
   664  079F  085A               	movf	main@roznica+1,w
   665  07A0  00B0               	movwf	___flmul@a+1
   666  07A1  0859               	movf	main@roznica,w
   667  07A2  00AF               	movwf	___flmul@a
   668  07A3  118A  2012  118A   	fcall	___flmul
   669  07A6  1283               	bcf	3,5	;RP0=0, select bank0
   670  07A7  1303               	bcf	3,6	;RP1=0, select bank0
   671  07A8  082E               	movf	?___flmul+3,w
   672  07A9  00DC               	movwf	main@roznica+3
   673  07AA  082D               	movf	?___flmul+2,w
   674  07AB  00DB               	movwf	main@roznica+2
   675  07AC  082C               	movf	?___flmul+1,w
   676  07AD  00DA               	movwf	main@roznica+1
   677  07AE  082B               	movf	?___flmul,w
   678  07AF  00D9               	movwf	main@roznica
   679                           
   680                           ;main.c: 42:                 przysp = roznica * 2 * 3.14159;;
   681  07B0  3040               	movlw	64
   682  07B1  00AE               	movwf	___flmul@b+3
   683  07B2  3000               	movlw	0
   684  07B3  00AD               	movwf	___flmul@b+2
   685  07B4  3000               	movlw	0
   686  07B5  00AC               	movwf	___flmul@b+1
   687  07B6  3000               	movlw	0
   688  07B7  00AB               	movwf	___flmul@b
   689  07B8  085C               	movf	main@roznica+3,w
   690  07B9  00B2               	movwf	___flmul@a+3
   691  07BA  085B               	movf	main@roznica+2,w
   692  07BB  00B1               	movwf	___flmul@a+2
   693  07BC  085A               	movf	main@roznica+1,w
   694  07BD  00B0               	movwf	___flmul@a+1
   695  07BE  0859               	movf	main@roznica,w
   696  07BF  00AF               	movwf	___flmul@a
   697  07C0  118A  2012  118A   	fcall	___flmul
   698  07C3  1283               	bcf	3,5	;RP0=0, select bank0
   699  07C4  1303               	bcf	3,6	;RP1=0, select bank0
   700  07C5  082E               	movf	?___flmul+3,w
   701  07C6  00D0               	movwf	_main$504+3
   702  07C7  082D               	movf	?___flmul+2,w
   703  07C8  00CF               	movwf	_main$504+2
   704  07C9  082C               	movf	?___flmul+1,w
   705  07CA  00CE               	movwf	_main$504+1
   706  07CB  082B               	movf	?___flmul,w
   707  07CC  00CD               	movwf	_main$504
   708                           
   709                           ;main.c: 42:                 przysp = roznica * 2 * 3.14159;;
   710  07CD  3040               	movlw	64
   711  07CE  00AE               	movwf	___flmul@b+3
   712  07CF  3049               	movlw	73
   713  07D0  00AD               	movwf	___flmul@b+2
   714  07D1  300F               	movlw	15
   715  07D2  00AC               	movwf	___flmul@b+1
   716  07D3  30D0               	movlw	208
   717  07D4  00AB               	movwf	___flmul@b
   718  07D5  0850               	movf	_main$504+3,w
   719  07D6  00B2               	movwf	___flmul@a+3
   720  07D7  084F               	movf	_main$504+2,w
   721  07D8  00B1               	movwf	___flmul@a+2
   722  07D9  084E               	movf	_main$504+1,w
   723  07DA  00B0               	movwf	___flmul@a+1
   724  07DB  084D               	movf	_main$504,w
   725  07DC  00AF               	movwf	___flmul@a
   726  07DD  118A  2012  118A   	fcall	___flmul
   727  07E0  1283               	bcf	3,5	;RP0=0, select bank0
   728  07E1  1303               	bcf	3,6	;RP1=0, select bank0
   729  07E2  082E               	movf	?___flmul+3,w
   730  07E3  00D4               	movwf	main@przysp+3
   731  07E4  082D               	movf	?___flmul+2,w
   732  07E5  00D3               	movwf	main@przysp+2
   733  07E6  082C               	movf	?___flmul+1,w
   734  07E7  00D2               	movwf	main@przysp+1
   735  07E8  082B               	movf	?___flmul,w
   736  07E9  00D1               	movwf	main@przysp
   737  07EA                     l1686:
   738                           
   739                           ;main.c: 43:                 printf("%ld",przysp);
   740  07EA  0854               	movf	main@przysp+3,w
   741  07EB  00BD               	movwf	?_printf+3
   742  07EC  0853               	movf	main@przysp+2,w
   743  07ED  00BC               	movwf	?_printf+2
   744  07EE  0852               	movf	main@przysp+1,w
   745  07EF  00BB               	movwf	?_printf+1
   746  07F0  0851               	movf	main@przysp,w
   747  07F1  00BA               	movwf	?_printf
   748  07F2  3029               	movlw	(low ((STR_1-__stringbase)| (0+32768)))& (0+255)
   749  07F3  118A  25E9  118A   	fcall	_printf
   750  07F6                     l33:
   751  07F6  118A  280D         	ljmp	start
   752  07F8                     __end_of_main:
   753                           
   754                           	psect	text1
   755  05E9                     __ptext1:	
   756 ;; *************** function _printf *****************
   757 ;; Defined at:
   758 ;;		line 477 in file "C:\Program Files\Microchip\xc8\v2.32\pic\sources\c90\common\doprnt.c"
   759 ;; Parameters:    Size  Location     Type
   760 ;;  f               1    wreg     PTR const unsigned char 
   761 ;;		 -> STR_1(4), 
   762 ;; Auto vars:     Size  Location     Type
   763 ;;  f               1   37[BANK0 ] PTR const unsigned char 
   764 ;;		 -> STR_1(4), 
   765 ;;  val             4   40[BANK0 ] unsigned long 
   766 ;;  tmpval          4    0        struct .
   767 ;;  prec            2   35[BANK0 ] int 
   768 ;;  cp              2    0        PTR const unsigned char 
   769 ;;  len             2    0        unsigned int 
   770 ;;  c               1   44[BANK0 ] unsigned char 
   771 ;;  flag            1   39[BANK0 ] unsigned char 
   772 ;;  ap              1   38[BANK0 ] PTR void [1]
   773 ;;		 -> ?_printf(2), 
   774 ;; Return value:  Size  Location     Type
   775 ;;                  2   26[BANK0 ] int 
   776 ;; Registers used:
   777 ;;		wreg, fsr0l, fsr0h, status,2, status,0, pclath, cstack
   778 ;; Tracked objects:
   779 ;;		On entry : 0/0
   780 ;;		On exit  : 0/0
   781 ;;		Unchanged: 0/0
   782 ;; Data sizes:     COMMON   BANK0   BANK1
   783 ;;      Params:         0       4       0
   784 ;;      Locals:         0      10       0
   785 ;;      Temps:          0       5       0
   786 ;;      Totals:         0      19       0
   787 ;;Total ram usage:       19 bytes
   788 ;; Hardware stack levels used: 1
   789 ;; Hardware stack levels required when called: 2
   790 ;; This function calls:
   791 ;;		___lldiv
   792 ;;		___llmod
   793 ;;		_putch
   794 ;; This function is called by:
   795 ;;		_main
   796 ;; This function uses a non-reentrant model
   797 ;;
   798                           
   799                           
   800                           ;psect for function _printf
   801  05E9                     _printf:
   802                           
   803                           ;incstack = 0
   804                           ; Regs used in _printf: [wreg-fsr0h+status,2+status,0+pclath+cstack]
   805                           ;printf@f stored from wreg
   806  05E9  1283               	bcf	3,5	;RP0=0, select bank0
   807  05EA  1303               	bcf	3,6	;RP1=0, select bank0
   808  05EB  00C5               	movwf	printf@f
   809  05EC                     l1414:
   810                           
   811                           ;C:\Program Files\Microchip\xc8\v2.32\pic\sources\c90\common\doprnt.c: 477: printf(const
      +                           char * f, ...);C:\Program Files\Microchip\xc8\v2.32\pic\sources\c90\common\doprnt.c: 47
      +                          8: {;C:\Program Files\Microchip\xc8\v2.32\pic\sources\c90\common\doprnt.c: 479:  va_list
      +                           ap;;C:\Program Files\Microchip\xc8\v2.32\pic\sources\c90\common\doprnt.c: 512:  char c;
      +                          ;C:\Program Files\Microchip\xc8\v2.32\pic\sources\c90\common\doprnt.c: 517:  int prec;;C
      +                          :\Program Files\Microchip\xc8\v2.32\pic\sources\c90\common\doprnt.c: 525:  unsigned char
      +                           flag;
   812  05EC  303A               	movlw	(low (?_printf| 0))& (0+255)
   813  05ED  00BE               	movwf	??_printf
   814  05EE  083E               	movf	??_printf,w
   815  05EF  00C6               	movwf	printf@ap
   816                           
   817                           ;C:\Program Files\Microchip\xc8\v2.32\pic\sources\c90\common\doprnt.c: 553:  while((c = 
      +                          *f++)) {
   818  05F0  2F02               	goto	l1462
   819  05F1                     l1416:
   820                           
   821                           ;C:\Program Files\Microchip\xc8\v2.32\pic\sources\c90\common\doprnt.c: 555:   if(c != '%
      +                          ')
   822  05F1  3025               	movlw	37
   823  05F2  064C               	xorwf	printf@c,w
   824  05F3  1903               	btfsc	3,2
   825  05F4  2DF6               	goto	u1911
   826  05F5  2DF7               	goto	u1910
   827  05F6                     u1911:
   828  05F6  2DFC               	goto	l1420
   829  05F7                     u1910:
   830  05F7                     l1418:
   831                           
   832                           ;C:\Program Files\Microchip\xc8\v2.32\pic\sources\c90\common\doprnt.c: 557:   {;C:\Progr
      +                          am Files\Microchip\xc8\v2.32\pic\sources\c90\common\doprnt.c: 558:    (putch(c) );
   833  05F7  084C               	movf	printf@c,w
   834  05F8  118A  27F8  118A   	fcall	_putch
   835                           
   836                           ;C:\Program Files\Microchip\xc8\v2.32\pic\sources\c90\common\doprnt.c: 559:    continue;
   837  05FB  2F02               	goto	l1462
   838  05FC                     l1420:
   839                           
   840                           ;C:\Program Files\Microchip\xc8\v2.32\pic\sources\c90\common\doprnt.c: 565:   flag = 0;
   841  05FC  01C7               	clrf	printf@flag
   842  05FD  2DFF               	goto	l1424
   843  05FE                     l65:	
   844                           ;C:\Program Files\Microchip\xc8\v2.32\pic\sources\c90\common\doprnt.c: 667:   case 'l':
   845                           
   846                           
   847                           ;C:\Program Files\Microchip\xc8\v2.32\pic\sources\c90\common\doprnt.c: 669:    flag |= 0
      +                          x10;
   848  05FE  1647               	bsf	printf@flag,4
   849  05FF                     l1424:	
   850                           ;C:\Program Files\Microchip\xc8\v2.32\pic\sources\c90\common\doprnt.c: 670:    goto loop
      +                          ;
   851                           
   852  05FF  3001               	movlw	1
   853  0600  07C5               	addwf	printf@f,f
   854  0601  30FF               	movlw	-1
   855  0602  0745               	addwf	printf@f,w
   856  0603  0084               	movwf	4
   857  0604  158A  2000  118A   	fcall	stringdir
   858  0607  00CC               	movwf	printf@c
   859  0608  00BE               	movwf	??_printf
   860  0609  01BF               	clrf	??_printf+1
   861                           
   862                           ; Switch on 2 bytes has been partitioned into a top level switch of size 1, and 1 sub-sw
      +                          itches
   863                           ; Switch size 1, requested type "simple"
   864                           ; Number of cases is 1, Range of values is 0 to 0
   865                           ; switch strategies available:
   866                           ; Name         Instructions Cycles
   867                           ; simple_byte            4     3 (average)
   868                           ; direct_byte            9     7 (fixed)
   869                           ; jumptable            260     6 (fixed)
   870                           ;	Chosen strategy is simple_byte
   871  060A  083F               	movf	??_printf+1,w
   872  060B  3A00               	xorlw	0	; case 0
   873  060C  1903               	skipnz
   874  060D  2E0F               	goto	l1722
   875  060E  2F02               	goto	l1462
   876  060F                     l1722:
   877                           
   878                           ; Switch size 1, requested type "simple"
   879                           ; Number of cases is 4, Range of values is 0 to 108
   880                           ; switch strategies available:
   881                           ; Name         Instructions Cycles
   882                           ; simple_byte           13     7 (average)
   883                           ; direct_byte          225     7 (fixed)
   884                           ; jumptable            260     6 (fixed)
   885                           ;	Chosen strategy is simple_byte
   886  060F  083E               	movf	??_printf,w
   887  0610  3A00               	xorlw	0	; case 0
   888  0611  1903               	skipnz
   889  0612  2F14               	goto	l81
   890  0613  3A64               	xorlw	100	; case 100
   891  0614  1903               	skipnz
   892  0615  2E1D               	goto	l68
   893  0616  3A0D               	xorlw	13	; case 105
   894  0617  1903               	skipnz
   895  0618  2E1D               	goto	l68
   896  0619  3A05               	xorlw	5	; case 108
   897  061A  1903               	skipnz
   898  061B  2DFE               	goto	l65
   899  061C  2F02               	goto	l1462
   900  061D                     l68:
   901                           
   902                           ;C:\Program Files\Microchip\xc8\v2.32\pic\sources\c90\common\doprnt.c: 1279:   {;C:\Prog
      +                          ram Files\Microchip\xc8\v2.32\pic\sources\c90\common\doprnt.c: 1281:    if(flag & 0x10)
   903  061D  1E47               	btfss	printf@flag,4
   904  061E  2E20               	goto	u1921
   905  061F  2E21               	goto	u1920
   906  0620                     u1921:
   907  0620  2E34               	goto	l1430
   908  0621                     u1920:
   909  0621                     l1426:
   910                           
   911                           ;C:\Program Files\Microchip\xc8\v2.32\pic\sources\c90\common\doprnt.c: 1282:     val = (
      +                          unsigned long)(*(long *)__va_arg((*(long **)ap), (long)0));
   912  0621  0846               	movf	printf@ap,w
   913  0622  0084               	movwf	4
   914  0623  1383               	bcf	3,7	;select IRP bank0
   915  0624  0800               	movf	0,w
   916  0625  00C8               	movwf	printf@val
   917  0626  0A84               	incf	4,f
   918  0627  0800               	movf	0,w
   919  0628  00C9               	movwf	printf@val+1
   920  0629  0A84               	incf	4,f
   921  062A  0800               	movf	0,w
   922  062B  00CA               	movwf	printf@val+2
   923  062C  0A84               	incf	4,f
   924  062D  0800               	movf	0,w
   925  062E  00CB               	movwf	printf@val+3
   926  062F                     l1428:
   927  062F  3004               	movlw	4
   928  0630  00BE               	movwf	??_printf
   929  0631  083E               	movf	??_printf,w
   930  0632  07C6               	addwf	printf@ap,f
   931  0633  2E49               	goto	l1434
   932  0634                     l1430:
   933                           
   934                           ;C:\Program Files\Microchip\xc8\v2.32\pic\sources\c90\common\doprnt.c: 1285:     val = (
      +                          unsigned long)(*(int *)__va_arg((*(int **)ap), (int)0));
   935  0634  0846               	movf	printf@ap,w
   936  0635  0084               	movwf	4
   937  0636  1383               	bcf	3,7	;select IRP bank0
   938  0637  0800               	movf	0,w
   939  0638  00BE               	movwf	??_printf
   940  0639  0A84               	incf	4,f
   941  063A  0800               	movf	0,w
   942  063B  00BF               	movwf	??_printf+1
   943  063C  083E               	movf	??_printf,w
   944  063D  00C8               	movwf	printf@val
   945  063E  083F               	movf	??_printf+1,w
   946  063F  00C9               	movwf	printf@val+1
   947  0640  3000               	movlw	0
   948  0641  1BC9               	btfsc	printf@val+1,7
   949  0642  30FF               	movlw	255
   950  0643  00CA               	movwf	printf@val+2
   951  0644  00CB               	movwf	printf@val+3
   952  0645                     l1432:
   953  0645  3002               	movlw	2
   954  0646  00BE               	movwf	??_printf
   955  0647  083E               	movf	??_printf,w
   956  0648  07C6               	addwf	printf@ap,f
   957  0649                     l1434:
   958                           
   959                           ;C:\Program Files\Microchip\xc8\v2.32\pic\sources\c90\common\doprnt.c: 1287:    if((long
      +                          )val < 0) {
   960  0649  1FCB               	btfss	printf@val+3,7
   961  064A  2E4C               	goto	u1931
   962  064B  2E4D               	goto	u1930
   963  064C                     u1931:
   964  064C  2E5C               	goto	l1440
   965  064D                     u1930:
   966  064D                     l1436:
   967                           
   968                           ;C:\Program Files\Microchip\xc8\v2.32\pic\sources\c90\common\doprnt.c: 1288:     flag |=
      +                           0x03;
   969  064D  3003               	movlw	3
   970  064E  00BE               	movwf	??_printf
   971  064F  083E               	movf	??_printf,w
   972  0650  04C7               	iorwf	printf@flag,f
   973  0651                     l1438:
   974                           
   975                           ;C:\Program Files\Microchip\xc8\v2.32\pic\sources\c90\common\doprnt.c: 1289:     val = -
      +                          val;
   976  0651  09C8               	comf	printf@val,f
   977  0652  09C9               	comf	printf@val+1,f
   978  0653  09CA               	comf	printf@val+2,f
   979  0654  09CB               	comf	printf@val+3,f
   980  0655  0AC8               	incf	printf@val,f
   981  0656  1903               	skipnz
   982  0657  0AC9               	incf	printf@val+1,f
   983  0658  1903               	skipnz
   984  0659  0ACA               	incf	printf@val+2,f
   985  065A  1903               	skipnz
   986  065B  0ACB               	incf	printf@val+3,f
   987  065C                     l1440:
   988                           
   989                           ;C:\Program Files\Microchip\xc8\v2.32\pic\sources\c90\common\doprnt.c: 1292:   };C:\Prog
      +                          ram Files\Microchip\xc8\v2.32\pic\sources\c90\common\doprnt.c: 1331:    for(c = 1 ; c !=
      +                           sizeof dpowers/sizeof dpowers[0] ; c++)
   990  065C  01CC               	clrf	printf@c
   991  065D  0ACC               	incf	printf@c,f
   992  065E                     l1444:
   993                           
   994                           ;C:\Program Files\Microchip\xc8\v2.32\pic\sources\c90\common\doprnt.c: 1332:     if(val 
      +                          < dpowers[c])
   995  065E  084C               	movf	printf@c,w
   996  065F  00BE               	movwf	??_printf
   997  0660  3001               	movlw	1
   998  0661                     u1945:
   999  0661  1003               	clrc
  1000  0662  0DBE               	rlf	??_printf,f
  1001  0663  3EFF               	addlw	-1
  1002  0664  1D03               	skipz
  1003  0665  2E61               	goto	u1945
  1004  0666  1003               	clrc
  1005  0667  0D3E               	rlf	??_printf,w
  1006  0668  3E01               	addlw	low ((_dpowers-__stringbase)| (0+32768))
  1007  0669  0084               	movwf	4
  1008  066A  158A  2000  118A   	fcall	stringdir
  1009  066D  00BF               	movwf	??_printf+1
  1010  066E  158A  2000  118A   	fcall	stringdir
  1011  0671  00C0               	movwf	??_printf+2
  1012  0672  158A  2000  118A   	fcall	stringdir
  1013  0675  00C1               	movwf	??_printf+3
  1014  0676  158A  2000  118A   	fcall	stringdir
  1015  0679  00C2               	movwf	??_printf+4
  1016  067A  0842               	movf	??_printf+4,w
  1017  067B  024B               	subwf	printf@val+3,w
  1018  067C  1D03               	skipz
  1019  067D  2E88               	goto	u1955
  1020  067E  0841               	movf	??_printf+3,w
  1021  067F  024A               	subwf	printf@val+2,w
  1022  0680  1D03               	skipz
  1023  0681  2E88               	goto	u1955
  1024  0682  0840               	movf	??_printf+2,w
  1025  0683  0249               	subwf	printf@val+1,w
  1026  0684  1D03               	skipz
  1027  0685  2E88               	goto	u1955
  1028  0686  083F               	movf	??_printf+1,w
  1029  0687  0248               	subwf	printf@val,w
  1030  0688                     u1955:
  1031  0688  1803               	skipnc
  1032  0689  2E8B               	goto	u1951
  1033  068A  2E8C               	goto	u1950
  1034  068B                     u1951:
  1035  068B  2E8D               	goto	l1448
  1036  068C                     u1950:
  1037  068C  2E97               	goto	l1450
  1038  068D                     l1448:
  1039  068D  3001               	movlw	1
  1040  068E  00BE               	movwf	??_printf
  1041  068F  083E               	movf	??_printf,w
  1042  0690  07CC               	addwf	printf@c,f
  1043  0691  300A               	movlw	10
  1044  0692  064C               	xorwf	printf@c,w
  1045  0693  1D03               	btfss	3,2
  1046  0694  2E96               	goto	u1961
  1047  0695  2E97               	goto	u1960
  1048  0696                     u1961:
  1049  0696  2E5E               	goto	l1444
  1050  0697                     u1960:
  1051  0697                     l1450:
  1052                           
  1053                           ;C:\Program Files\Microchip\xc8\v2.32\pic\sources\c90\common\doprnt.c: 1448:   {;C:\Prog
      +                          ram Files\Microchip\xc8\v2.32\pic\sources\c90\common\doprnt.c: 1464:    if(flag & 0x03)
  1054  0697  0847               	movf	printf@flag,w
  1055  0698  3903               	andlw	3
  1056  0699  1903               	btfsc	3,2
  1057  069A  2E9C               	goto	u1971
  1058  069B  2E9D               	goto	u1970
  1059  069C                     u1971:
  1060  069C  2EA1               	goto	l1454
  1061  069D                     u1970:
  1062  069D                     l1452:
  1063                           
  1064                           ;C:\Program Files\Microchip\xc8\v2.32\pic\sources\c90\common\doprnt.c: 1465:     (putch(
      +                          '-') );
  1065  069D  302D               	movlw	45
  1066  069E  118A  27F8  118A   	fcall	_putch
  1067  06A1                     l1454:
  1068                           
  1069                           ;C:\Program Files\Microchip\xc8\v2.32\pic\sources\c90\common\doprnt.c: 1495:   };C:\Prog
      +                          ram Files\Microchip\xc8\v2.32\pic\sources\c90\common\doprnt.c: 1498:   prec = c;
  1070  06A1  1283               	bcf	3,5	;RP0=0, select bank0
  1071  06A2  1303               	bcf	3,6	;RP1=0, select bank0
  1072  06A3  084C               	movf	printf@c,w
  1073  06A4  00BE               	movwf	??_printf
  1074  06A5  01BF               	clrf	??_printf+1
  1075  06A6  083E               	movf	??_printf,w
  1076  06A7  00C3               	movwf	printf@prec
  1077  06A8  083F               	movf	??_printf+1,w
  1078  06A9  00C4               	movwf	printf@prec+1
  1079                           
  1080                           ;C:\Program Files\Microchip\xc8\v2.32\pic\sources\c90\common\doprnt.c: 1500:   while(pre
      +                          c--) {
  1081  06AA  2EF2               	goto	l1460
  1082  06AB                     l1456:
  1083                           
  1084                           ;C:\Program Files\Microchip\xc8\v2.32\pic\sources\c90\common\doprnt.c: 1504:    {;C:\Pro
      +                          gram Files\Microchip\xc8\v2.32\pic\sources\c90\common\doprnt.c: 1515:     c = (val / dpo
      +                          wers[(unsigned int)prec]) % 10 + '0';
  1085  06AB  3000               	movlw	0
  1086  06AC  00B3               	movwf	___llmod@divisor+3
  1087  06AD  3000               	movlw	0
  1088  06AE  00B2               	movwf	___llmod@divisor+2
  1089  06AF  3000               	movlw	0
  1090  06B0  00B1               	movwf	___llmod@divisor+1
  1091  06B1  300A               	movlw	10
  1092  06B2  00B0               	movwf	___llmod@divisor
  1093  06B3  0843               	movf	printf@prec,w
  1094  06B4  00BE               	movwf	??_printf
  1095  06B5  3001               	movlw	1
  1096  06B6                     u1985:
  1097  06B6  1003               	clrc
  1098  06B7  0DBE               	rlf	??_printf,f
  1099  06B8  3EFF               	addlw	-1
  1100  06B9  1D03               	skipz
  1101  06BA  2EB6               	goto	u1985
  1102  06BB  1003               	clrc
  1103  06BC  0D3E               	rlf	??_printf,w
  1104  06BD  3E01               	addlw	low ((_dpowers-__stringbase)| (0+32768))
  1105  06BE  0084               	movwf	4
  1106  06BF  158A  2000  118A   	fcall	stringdir
  1107  06C2  00A2               	movwf	___lldiv@divisor
  1108  06C3  158A  2000  118A   	fcall	stringdir
  1109  06C6  00A3               	movwf	___lldiv@divisor+1
  1110  06C7  158A  2000  118A   	fcall	stringdir
  1111  06CA  00A4               	movwf	___lldiv@divisor+2
  1112  06CB  158A  2000  118A   	fcall	stringdir
  1113  06CE  00A5               	movwf	___lldiv@divisor+3
  1114  06CF  084B               	movf	printf@val+3,w
  1115  06D0  00A9               	movwf	___lldiv@dividend+3
  1116  06D1  084A               	movf	printf@val+2,w
  1117  06D2  00A8               	movwf	___lldiv@dividend+2
  1118  06D3  0849               	movf	printf@val+1,w
  1119  06D4  00A7               	movwf	___lldiv@dividend+1
  1120  06D5  0848               	movf	printf@val,w
  1121  06D6  00A6               	movwf	___lldiv@dividend
  1122  06D7  158A  26DC  118A   	fcall	___lldiv
  1123  06DA  1283               	bcf	3,5	;RP0=0, select bank0
  1124  06DB  1303               	bcf	3,6	;RP1=0, select bank0
  1125  06DC  0825               	movf	?___lldiv+3,w
  1126  06DD  00B7               	movwf	___llmod@dividend+3
  1127  06DE  0824               	movf	?___lldiv+2,w
  1128  06DF  00B6               	movwf	___llmod@dividend+2
  1129  06E0  0823               	movf	?___lldiv+1,w
  1130  06E1  00B5               	movwf	___llmod@dividend+1
  1131  06E2  0822               	movf	?___lldiv,w
  1132  06E3  00B4               	movwf	___llmod@dividend
  1133  06E4  158A  2686  118A   	fcall	___llmod
  1134  06E7  1283               	bcf	3,5	;RP0=0, select bank0
  1135  06E8  1303               	bcf	3,6	;RP1=0, select bank0
  1136  06E9  0830               	movf	?___llmod,w
  1137  06EA  3E30               	addlw	48
  1138  06EB  00BF               	movwf	??_printf+1
  1139  06EC  083F               	movf	??_printf+1,w
  1140  06ED  00CC               	movwf	printf@c
  1141  06EE                     l1458:
  1142                           
  1143                           ;C:\Program Files\Microchip\xc8\v2.32\pic\sources\c90\common\doprnt.c: 1549:    };C:\Pro
      +                          gram Files\Microchip\xc8\v2.32\pic\sources\c90\common\doprnt.c: 1550:    (putch(c) );
  1144  06EE  084C               	movf	printf@c,w
  1145  06EF  118A  27F8  118A   	fcall	_putch
  1146  06F2                     l1460:
  1147                           
  1148                           ;C:\Program Files\Microchip\xc8\v2.32\pic\sources\c90\common\doprnt.c: 1500:   while(pre
      +                          c--) {
  1149  06F2  30FF               	movlw	255
  1150  06F3  1283               	bcf	3,5	;RP0=0, select bank0
  1151  06F4  1303               	bcf	3,6	;RP1=0, select bank0
  1152  06F5  07C3               	addwf	printf@prec,f
  1153  06F6  1803               	skipnc
  1154  06F7  0AC4               	incf	printf@prec+1,f
  1155  06F8  30FF               	movlw	255
  1156  06F9  07C4               	addwf	printf@prec+1,f
  1157  06FA  0A43               	incf	printf@prec,w
  1158  06FB  1D03               	skipz
  1159  06FC  2F01               	goto	u1991
  1160  06FD  0A44               	incf	printf@prec+1,w
  1161  06FE  1D03               	btfss	3,2
  1162  06FF  2F01               	goto	u1991
  1163  0700  2F02               	goto	u1990
  1164  0701                     u1991:
  1165  0701  2EAB               	goto	l1456
  1166  0702                     u1990:
  1167  0702                     l1462:
  1168                           
  1169                           ;C:\Program Files\Microchip\xc8\v2.32\pic\sources\c90\common\doprnt.c: 553:  while((c = 
      +                          *f++)) {
  1170  0702  3001               	movlw	1
  1171  0703  1283               	bcf	3,5	;RP0=0, select bank0
  1172  0704  1303               	bcf	3,6	;RP1=0, select bank0
  1173  0705  07C5               	addwf	printf@f,f
  1174  0706  30FF               	movlw	-1
  1175  0707  0745               	addwf	printf@f,w
  1176  0708  0084               	movwf	4
  1177  0709  158A  2000  118A   	fcall	stringdir
  1178  070C  00BE               	movwf	??_printf
  1179  070D  083E               	movf	??_printf,w
  1180  070E  00CC               	movwf	printf@c
  1181  070F  084C               	movf	printf@c,w
  1182  0710  1D03               	btfss	3,2
  1183  0711  2F13               	goto	u2001
  1184  0712  2F14               	goto	u2000
  1185  0713                     u2001:
  1186  0713  2DF1               	goto	l1416
  1187  0714                     u2000:
  1188  0714                     l81:
  1189  0714  0008               	return
  1190  0715                     __end_of_printf:
  1191                           
  1192                           	psect	text2
  1193  07F8                     __ptext2:	
  1194 ;; *************** function _putch *****************
  1195 ;; Defined at:
  1196 ;;		line 7 in file "C:\Program Files\Microchip\xc8\v2.32\pic\sources\c90\common\putch.c"
  1197 ;; Parameters:    Size  Location     Type
  1198 ;;  c               1    wreg     unsigned char 
  1199 ;; Auto vars:     Size  Location     Type
  1200 ;;  c               1    0[BANK0 ] unsigned char 
  1201 ;; Return value:  Size  Location     Type
  1202 ;;                  1    wreg      void 
  1203 ;; Registers used:
  1204 ;;		wreg
  1205 ;; Tracked objects:
  1206 ;;		On entry : 0/0
  1207 ;;		On exit  : 0/0
  1208 ;;		Unchanged: 0/0
  1209 ;; Data sizes:     COMMON   BANK0   BANK1
  1210 ;;      Params:         0       0       0
  1211 ;;      Locals:         0       0       0
  1212 ;;      Temps:          0       0       0
  1213 ;;      Totals:         0       0       0
  1214 ;;Total ram usage:        0 bytes
  1215 ;; Hardware stack levels used: 1
  1216 ;; Hardware stack levels required when called: 1
  1217 ;; This function calls:
  1218 ;;		Nothing
  1219 ;; This function is called by:
  1220 ;;		_printf
  1221 ;; This function uses a non-reentrant model
  1222 ;;
  1223                           
  1224                           
  1225                           ;psect for function _putch
  1226  07F8                     _putch:
  1227  07F8                     l536:	
  1228                           ;incstack = 0
  1229                           ; Regs used in _putch: [wreg]
  1230                           
  1231  07F8  0008               	return
  1232  07F9                     __end_of_putch:
  1233                           
  1234                           	psect	text3
  1235  0E86                     __ptext3:	
  1236 ;; *************** function ___llmod *****************
  1237 ;; Defined at:
  1238 ;;		line 5 in file "C:\Program Files\Microchip\xc8\v2.32\pic\sources\c90\common\llmod.c"
  1239 ;; Parameters:    Size  Location     Type
  1240 ;;  divisor         4   16[BANK0 ] unsigned long 
  1241 ;;  dividend        4   20[BANK0 ] unsigned long 
  1242 ;; Auto vars:     Size  Location     Type
  1243 ;;  counter         1   25[BANK0 ] unsigned char 
  1244 ;; Return value:  Size  Location     Type
  1245 ;;                  4   16[BANK0 ] unsigned long 
  1246 ;; Registers used:
  1247 ;;		wreg, status,2, status,0
  1248 ;; Tracked objects:
  1249 ;;		On entry : 0/0
  1250 ;;		On exit  : 0/0
  1251 ;;		Unchanged: 0/0
  1252 ;; Data sizes:     COMMON   BANK0   BANK1
  1253 ;;      Params:         0       8       0
  1254 ;;      Locals:         0       1       0
  1255 ;;      Temps:          0       1       0
  1256 ;;      Totals:         0      10       0
  1257 ;;Total ram usage:       10 bytes
  1258 ;; Hardware stack levels used: 1
  1259 ;; Hardware stack levels required when called: 1
  1260 ;; This function calls:
  1261 ;;		Nothing
  1262 ;; This function is called by:
  1263 ;;		_printf
  1264 ;; This function uses a non-reentrant model
  1265 ;;
  1266                           
  1267                           
  1268                           ;psect for function ___llmod
  1269  0E86                     ___llmod:
  1270  0E86                     l1186:	
  1271                           ;incstack = 0
  1272                           ; Regs used in ___llmod: [wreg+status,2+status,0]
  1273                           
  1274  0E86  1283               	bcf	3,5	;RP0=0, select bank0
  1275  0E87  1303               	bcf	3,6	;RP1=0, select bank0
  1276  0E88  0833               	movf	___llmod@divisor+3,w
  1277  0E89  0432               	iorwf	___llmod@divisor+2,w
  1278  0E8A  0431               	iorwf	___llmod@divisor+1,w
  1279  0E8B  0430               	iorwf	___llmod@divisor,w
  1280  0E8C  1903               	skipnz
  1281  0E8D  2E8F               	goto	u1361
  1282  0E8E  2E90               	goto	u1360
  1283  0E8F                     u1361:
  1284  0E8F  2ED3               	goto	l1202
  1285  0E90                     u1360:
  1286  0E90                     l1188:
  1287  0E90  01B9               	clrf	___llmod@counter
  1288  0E91  0AB9               	incf	___llmod@counter,f
  1289  0E92  2EA0               	goto	l1192
  1290  0E93                     l1190:
  1291  0E93  3001               	movlw	1
  1292  0E94  00B8               	movwf	??___llmod
  1293  0E95                     u1375:
  1294  0E95  1003               	clrc
  1295  0E96  0DB0               	rlf	___llmod@divisor,f
  1296  0E97  0DB1               	rlf	___llmod@divisor+1,f
  1297  0E98  0DB2               	rlf	___llmod@divisor+2,f
  1298  0E99  0DB3               	rlf	___llmod@divisor+3,f
  1299  0E9A  0BB8               	decfsz	??___llmod,f
  1300  0E9B  2E95               	goto	u1375
  1301  0E9C  3001               	movlw	1
  1302  0E9D  00B8               	movwf	??___llmod
  1303  0E9E  0838               	movf	??___llmod,w
  1304  0E9F  07B9               	addwf	___llmod@counter,f
  1305  0EA0                     l1192:
  1306  0EA0  1FB3               	btfss	___llmod@divisor+3,7
  1307  0EA1  2EA3               	goto	u1381
  1308  0EA2  2EA4               	goto	u1380
  1309  0EA3                     u1381:
  1310  0EA3  2E93               	goto	l1190
  1311  0EA4                     u1380:
  1312  0EA4                     l1194:
  1313  0EA4  0833               	movf	___llmod@divisor+3,w
  1314  0EA5  0237               	subwf	___llmod@dividend+3,w
  1315  0EA6  1D03               	skipz
  1316  0EA7  2EB2               	goto	u1395
  1317  0EA8  0832               	movf	___llmod@divisor+2,w
  1318  0EA9  0236               	subwf	___llmod@dividend+2,w
  1319  0EAA  1D03               	skipz
  1320  0EAB  2EB2               	goto	u1395
  1321  0EAC  0831               	movf	___llmod@divisor+1,w
  1322  0EAD  0235               	subwf	___llmod@dividend+1,w
  1323  0EAE  1D03               	skipz
  1324  0EAF  2EB2               	goto	u1395
  1325  0EB0  0830               	movf	___llmod@divisor,w
  1326  0EB1  0234               	subwf	___llmod@dividend,w
  1327  0EB2                     u1395:
  1328  0EB2  1C03               	skipc
  1329  0EB3  2EB5               	goto	u1391
  1330  0EB4  2EB6               	goto	u1390
  1331  0EB5                     u1391:
  1332  0EB5  2EC4               	goto	l1198
  1333  0EB6                     u1390:
  1334  0EB6                     l1196:
  1335  0EB6  0830               	movf	___llmod@divisor,w
  1336  0EB7  02B4               	subwf	___llmod@dividend,f
  1337  0EB8  0831               	movf	___llmod@divisor+1,w
  1338  0EB9  1C03               	skipc
  1339  0EBA  0F31               	incfsz	___llmod@divisor+1,w
  1340  0EBB  02B5               	subwf	___llmod@dividend+1,f
  1341  0EBC  0832               	movf	___llmod@divisor+2,w
  1342  0EBD  1C03               	skipc
  1343  0EBE  0F32               	incfsz	___llmod@divisor+2,w
  1344  0EBF  02B6               	subwf	___llmod@dividend+2,f
  1345  0EC0  0833               	movf	___llmod@divisor+3,w
  1346  0EC1  1C03               	skipc
  1347  0EC2  0F33               	incfsz	___llmod@divisor+3,w
  1348  0EC3  02B7               	subwf	___llmod@dividend+3,f
  1349  0EC4                     l1198:
  1350  0EC4  3001               	movlw	1
  1351  0EC5                     u1405:
  1352  0EC5  1003               	clrc
  1353  0EC6  0CB3               	rrf	___llmod@divisor+3,f
  1354  0EC7  0CB2               	rrf	___llmod@divisor+2,f
  1355  0EC8  0CB1               	rrf	___llmod@divisor+1,f
  1356  0EC9  0CB0               	rrf	___llmod@divisor,f
  1357  0ECA  3EFF               	addlw	-1
  1358  0ECB  1D03               	skipz
  1359  0ECC  2EC5               	goto	u1405
  1360  0ECD                     l1200:
  1361  0ECD  3001               	movlw	1
  1362  0ECE  02B9               	subwf	___llmod@counter,f
  1363  0ECF  1D03               	btfss	3,2
  1364  0ED0  2ED2               	goto	u1411
  1365  0ED1  2ED3               	goto	u1410
  1366  0ED2                     u1411:
  1367  0ED2  2EA4               	goto	l1194
  1368  0ED3                     u1410:
  1369  0ED3                     l1202:
  1370  0ED3  0837               	movf	___llmod@dividend+3,w
  1371  0ED4  00B3               	movwf	?___llmod+3
  1372  0ED5  0836               	movf	___llmod@dividend+2,w
  1373  0ED6  00B2               	movwf	?___llmod+2
  1374  0ED7  0835               	movf	___llmod@dividend+1,w
  1375  0ED8  00B1               	movwf	?___llmod+1
  1376  0ED9  0834               	movf	___llmod@dividend,w
  1377  0EDA  00B0               	movwf	?___llmod
  1378  0EDB                     l307:
  1379  0EDB  0008               	return
  1380  0EDC                     __end_of___llmod:
  1381                           
  1382                           	psect	text4
  1383  0EDC                     __ptext4:	
  1384 ;; *************** function ___lldiv *****************
  1385 ;; Defined at:
  1386 ;;		line 5 in file "C:\Program Files\Microchip\xc8\v2.32\pic\sources\c90\common\__lldiv.c"
  1387 ;; Parameters:    Size  Location     Type
  1388 ;;  divisor         4    2[BANK0 ] unsigned long 
  1389 ;;  dividend        4    6[BANK0 ] unsigned long 
  1390 ;; Auto vars:     Size  Location     Type
  1391 ;;  quotient        4   11[BANK0 ] unsigned long 
  1392 ;;  counter         1   15[BANK0 ] unsigned char 
  1393 ;; Return value:  Size  Location     Type
  1394 ;;                  4    2[BANK0 ] unsigned long 
  1395 ;; Registers used:
  1396 ;;		wreg, status,2, status,0
  1397 ;; Tracked objects:
  1398 ;;		On entry : 0/0
  1399 ;;		On exit  : 0/0
  1400 ;;		Unchanged: 0/0
  1401 ;; Data sizes:     COMMON   BANK0   BANK1
  1402 ;;      Params:         0       8       0
  1403 ;;      Locals:         0       5       0
  1404 ;;      Temps:          0       1       0
  1405 ;;      Totals:         0      14       0
  1406 ;;Total ram usage:       14 bytes
  1407 ;; Hardware stack levels used: 1
  1408 ;; Hardware stack levels required when called: 1
  1409 ;; This function calls:
  1410 ;;		Nothing
  1411 ;; This function is called by:
  1412 ;;		_printf
  1413 ;; This function uses a non-reentrant model
  1414 ;;
  1415                           
  1416                           
  1417                           ;psect for function ___lldiv
  1418  0EDC                     ___lldiv:
  1419  0EDC                     l1162:	
  1420                           ;incstack = 0
  1421                           ; Regs used in ___lldiv: [wreg+status,2+status,0]
  1422                           
  1423  0EDC  3000               	movlw	0
  1424  0EDD  1283               	bcf	3,5	;RP0=0, select bank0
  1425  0EDE  1303               	bcf	3,6	;RP1=0, select bank0
  1426  0EDF  00AE               	movwf	___lldiv@quotient+3
  1427  0EE0  3000               	movlw	0
  1428  0EE1  00AD               	movwf	___lldiv@quotient+2
  1429  0EE2  3000               	movlw	0
  1430  0EE3  00AC               	movwf	___lldiv@quotient+1
  1431  0EE4  3000               	movlw	0
  1432  0EE5  00AB               	movwf	___lldiv@quotient
  1433  0EE6  0825               	movf	___lldiv@divisor+3,w
  1434  0EE7  0424               	iorwf	___lldiv@divisor+2,w
  1435  0EE8  0423               	iorwf	___lldiv@divisor+1,w
  1436  0EE9  0422               	iorwf	___lldiv@divisor,w
  1437  0EEA  1903               	skipnz
  1438  0EEB  2EED               	goto	u1291
  1439  0EEC  2EEE               	goto	u1290
  1440  0EED                     u1291:
  1441  0EED  2F3B               	goto	l1182
  1442  0EEE                     u1290:
  1443  0EEE                     l1164:
  1444  0EEE  01AF               	clrf	___lldiv@counter
  1445  0EEF  0AAF               	incf	___lldiv@counter,f
  1446  0EF0  2EFE               	goto	l1168
  1447  0EF1                     l1166:
  1448  0EF1  3001               	movlw	1
  1449  0EF2  00AA               	movwf	??___lldiv
  1450  0EF3                     u1305:
  1451  0EF3  1003               	clrc
  1452  0EF4  0DA2               	rlf	___lldiv@divisor,f
  1453  0EF5  0DA3               	rlf	___lldiv@divisor+1,f
  1454  0EF6  0DA4               	rlf	___lldiv@divisor+2,f
  1455  0EF7  0DA5               	rlf	___lldiv@divisor+3,f
  1456  0EF8  0BAA               	decfsz	??___lldiv,f
  1457  0EF9  2EF3               	goto	u1305
  1458  0EFA  3001               	movlw	1
  1459  0EFB  00AA               	movwf	??___lldiv
  1460  0EFC  082A               	movf	??___lldiv,w
  1461  0EFD  07AF               	addwf	___lldiv@counter,f
  1462  0EFE                     l1168:
  1463  0EFE  1FA5               	btfss	___lldiv@divisor+3,7
  1464  0EFF  2F01               	goto	u1311
  1465  0F00  2F02               	goto	u1310
  1466  0F01                     u1311:
  1467  0F01  2EF1               	goto	l1166
  1468  0F02                     u1310:
  1469  0F02                     l1170:
  1470  0F02  3001               	movlw	1
  1471  0F03  00AA               	movwf	??___lldiv
  1472  0F04                     u1325:
  1473  0F04  1003               	clrc
  1474  0F05  0DAB               	rlf	___lldiv@quotient,f
  1475  0F06  0DAC               	rlf	___lldiv@quotient+1,f
  1476  0F07  0DAD               	rlf	___lldiv@quotient+2,f
  1477  0F08  0DAE               	rlf	___lldiv@quotient+3,f
  1478  0F09  0BAA               	decfsz	??___lldiv,f
  1479  0F0A  2F04               	goto	u1325
  1480  0F0B                     l1172:
  1481  0F0B  0825               	movf	___lldiv@divisor+3,w
  1482  0F0C  0229               	subwf	___lldiv@dividend+3,w
  1483  0F0D  1D03               	skipz
  1484  0F0E  2F19               	goto	u1335
  1485  0F0F  0824               	movf	___lldiv@divisor+2,w
  1486  0F10  0228               	subwf	___lldiv@dividend+2,w
  1487  0F11  1D03               	skipz
  1488  0F12  2F19               	goto	u1335
  1489  0F13  0823               	movf	___lldiv@divisor+1,w
  1490  0F14  0227               	subwf	___lldiv@dividend+1,w
  1491  0F15  1D03               	skipz
  1492  0F16  2F19               	goto	u1335
  1493  0F17  0822               	movf	___lldiv@divisor,w
  1494  0F18  0226               	subwf	___lldiv@dividend,w
  1495  0F19                     u1335:
  1496  0F19  1C03               	skipc
  1497  0F1A  2F1C               	goto	u1331
  1498  0F1B  2F1D               	goto	u1330
  1499  0F1C                     u1331:
  1500  0F1C  2F2C               	goto	l1178
  1501  0F1D                     u1330:
  1502  0F1D                     l1174:
  1503  0F1D  0822               	movf	___lldiv@divisor,w
  1504  0F1E  02A6               	subwf	___lldiv@dividend,f
  1505  0F1F  0823               	movf	___lldiv@divisor+1,w
  1506  0F20  1C03               	skipc
  1507  0F21  0F23               	incfsz	___lldiv@divisor+1,w
  1508  0F22  02A7               	subwf	___lldiv@dividend+1,f
  1509  0F23  0824               	movf	___lldiv@divisor+2,w
  1510  0F24  1C03               	skipc
  1511  0F25  0F24               	incfsz	___lldiv@divisor+2,w
  1512  0F26  02A8               	subwf	___lldiv@dividend+2,f
  1513  0F27  0825               	movf	___lldiv@divisor+3,w
  1514  0F28  1C03               	skipc
  1515  0F29  0F25               	incfsz	___lldiv@divisor+3,w
  1516  0F2A  02A9               	subwf	___lldiv@dividend+3,f
  1517  0F2B                     l1176:
  1518  0F2B  142B               	bsf	___lldiv@quotient,0
  1519  0F2C                     l1178:
  1520  0F2C  3001               	movlw	1
  1521  0F2D                     u1345:
  1522  0F2D  1003               	clrc
  1523  0F2E  0CA5               	rrf	___lldiv@divisor+3,f
  1524  0F2F  0CA4               	rrf	___lldiv@divisor+2,f
  1525  0F30  0CA3               	rrf	___lldiv@divisor+1,f
  1526  0F31  0CA2               	rrf	___lldiv@divisor,f
  1527  0F32  3EFF               	addlw	-1
  1528  0F33  1D03               	skipz
  1529  0F34  2F2D               	goto	u1345
  1530  0F35                     l1180:
  1531  0F35  3001               	movlw	1
  1532  0F36  02AF               	subwf	___lldiv@counter,f
  1533  0F37  1D03               	btfss	3,2
  1534  0F38  2F3A               	goto	u1351
  1535  0F39  2F3B               	goto	u1350
  1536  0F3A                     u1351:
  1537  0F3A  2F02               	goto	l1170
  1538  0F3B                     u1350:
  1539  0F3B                     l1182:
  1540  0F3B  082E               	movf	___lldiv@quotient+3,w
  1541  0F3C  00A5               	movwf	?___lldiv+3
  1542  0F3D  082D               	movf	___lldiv@quotient+2,w
  1543  0F3E  00A4               	movwf	?___lldiv+2
  1544  0F3F  082C               	movf	___lldiv@quotient+1,w
  1545  0F40  00A3               	movwf	?___lldiv+1
  1546  0F41  082B               	movf	___lldiv@quotient,w
  1547  0F42  00A2               	movwf	?___lldiv
  1548  0F43                     l121:
  1549  0F43  0008               	return
  1550  0F44                     __end_of___lldiv:
  1551                           
  1552                           	psect	text5
  1553  0F44                     __ptext5:	
  1554 ;; *************** function ___xxtofl *****************
  1555 ;; Defined at:
  1556 ;;		line 10 in file "C:\Program Files\Microchip\xc8\v2.32\pic\sources\c90\common\xxtofl.c"
  1557 ;; Parameters:    Size  Location     Type
  1558 ;;  sign            1    wreg     unsigned char 
  1559 ;;  val             4    2[BANK0 ] long 
  1560 ;; Auto vars:     Size  Location     Type
  1561 ;;  sign            1   10[BANK0 ] unsigned char 
  1562 ;;  arg             4   12[BANK0 ] unsigned long 
  1563 ;;  exp             1   11[BANK0 ] unsigned char 
  1564 ;; Return value:  Size  Location     Type
  1565 ;;                  4    2[BANK0 ] unsigned char 
  1566 ;; Registers used:
  1567 ;;		wreg, status,2, status,0
  1568 ;; Tracked objects:
  1569 ;;		On entry : 0/0
  1570 ;;		On exit  : 0/0
  1571 ;;		Unchanged: 0/0
  1572 ;; Data sizes:     COMMON   BANK0   BANK1
  1573 ;;      Params:         0       4       0
  1574 ;;      Locals:         0       6       0
  1575 ;;      Temps:          0       4       0
  1576 ;;      Totals:         0      14       0
  1577 ;;Total ram usage:       14 bytes
  1578 ;; Hardware stack levels used: 1
  1579 ;; Hardware stack levels required when called: 1
  1580 ;; This function calls:
  1581 ;;		Nothing
  1582 ;; This function is called by:
  1583 ;;		_main
  1584 ;; This function uses a non-reentrant model
  1585 ;;
  1586                           
  1587                           
  1588                           ;psect for function ___xxtofl
  1589  0F44                     ___xxtofl:
  1590                           
  1591                           ;incstack = 0
  1592                           ; Regs used in ___xxtofl: [wreg+status,2+status,0]
  1593                           ;___xxtofl@sign stored from wreg
  1594  0F44  1283               	bcf	3,5	;RP0=0, select bank0
  1595  0F45  1303               	bcf	3,6	;RP1=0, select bank0
  1596  0F46  00AA               	movwf	___xxtofl@sign
  1597  0F47                     l1614:
  1598  0F47  082A               	movf	___xxtofl@sign,w
  1599  0F48  1903               	btfsc	3,2
  1600  0F49  2F4B               	goto	u2381
  1601  0F4A  2F4C               	goto	u2380
  1602  0F4B                     u2381:
  1603  0F4B  2F60               	goto	l1620
  1604  0F4C                     u2380:
  1605  0F4C                     l1616:
  1606  0F4C  1FA5               	btfss	___xxtofl@val+3,7
  1607  0F4D  2F4F               	goto	u2391
  1608  0F4E  2F50               	goto	u2390
  1609  0F4F                     u2391:
  1610  0F4F  2F60               	goto	l1620
  1611  0F50                     u2390:
  1612  0F50                     l1618:
  1613  0F50  0922               	comf	___xxtofl@val,w
  1614  0F51  00AC               	movwf	___xxtofl@arg
  1615  0F52  0923               	comf	___xxtofl@val+1,w
  1616  0F53  00AD               	movwf	___xxtofl@arg+1
  1617  0F54  0924               	comf	___xxtofl@val+2,w
  1618  0F55  00AE               	movwf	___xxtofl@arg+2
  1619  0F56  0925               	comf	___xxtofl@val+3,w
  1620  0F57  00AF               	movwf	___xxtofl@arg+3
  1621  0F58  0AAC               	incf	___xxtofl@arg,f
  1622  0F59  1903               	skipnz
  1623  0F5A  0AAD               	incf	___xxtofl@arg+1,f
  1624  0F5B  1903               	skipnz
  1625  0F5C  0AAE               	incf	___xxtofl@arg+2,f
  1626  0F5D  1903               	skipnz
  1627  0F5E  0AAF               	incf	___xxtofl@arg+3,f
  1628  0F5F  2F68               	goto	l518
  1629  0F60                     l1620:
  1630  0F60  0825               	movf	___xxtofl@val+3,w
  1631  0F61  00AF               	movwf	___xxtofl@arg+3
  1632  0F62  0824               	movf	___xxtofl@val+2,w
  1633  0F63  00AE               	movwf	___xxtofl@arg+2
  1634  0F64  0823               	movf	___xxtofl@val+1,w
  1635  0F65  00AD               	movwf	___xxtofl@arg+1
  1636  0F66  0822               	movf	___xxtofl@val,w
  1637  0F67  00AC               	movwf	___xxtofl@arg
  1638  0F68                     l518:
  1639  0F68  0825               	movf	___xxtofl@val+3,w
  1640  0F69  0424               	iorwf	___xxtofl@val+2,w
  1641  0F6A  0423               	iorwf	___xxtofl@val+1,w
  1642  0F6B  0422               	iorwf	___xxtofl@val,w
  1643  0F6C  1D03               	skipz
  1644  0F6D  2F6F               	goto	u2401
  1645  0F6E  2F70               	goto	u2400
  1646  0F6F                     u2401:
  1647  0F6F  2F79               	goto	l1626
  1648  0F70                     u2400:
  1649  0F70                     l1622:
  1650  0F70  3000               	movlw	0
  1651  0F71  00A5               	movwf	?___xxtofl+3
  1652  0F72  3000               	movlw	0
  1653  0F73  00A4               	movwf	?___xxtofl+2
  1654  0F74  3000               	movlw	0
  1655  0F75  00A3               	movwf	?___xxtofl+1
  1656  0F76  3000               	movlw	0
  1657  0F77  00A2               	movwf	?___xxtofl
  1658  0F78  2FFF               	goto	l520
  1659  0F79                     l1626:
  1660  0F79  3096               	movlw	150
  1661  0F7A  00A6               	movwf	??___xxtofl
  1662  0F7B  0826               	movf	??___xxtofl,w
  1663  0F7C  00AB               	movwf	___xxtofl@exp
  1664  0F7D  2F8B               	goto	l1630
  1665  0F7E                     l1628:
  1666  0F7E  3001               	movlw	1
  1667  0F7F  00A6               	movwf	??___xxtofl
  1668  0F80  0826               	movf	??___xxtofl,w
  1669  0F81  07AB               	addwf	___xxtofl@exp,f
  1670  0F82  3001               	movlw	1
  1671  0F83                     u2415:
  1672  0F83  1003               	clrc
  1673  0F84  0CAF               	rrf	___xxtofl@arg+3,f
  1674  0F85  0CAE               	rrf	___xxtofl@arg+2,f
  1675  0F86  0CAD               	rrf	___xxtofl@arg+1,f
  1676  0F87  0CAC               	rrf	___xxtofl@arg,f
  1677  0F88  3EFF               	addlw	-1
  1678  0F89  1D03               	skipz
  1679  0F8A  2F83               	goto	u2415
  1680  0F8B                     l1630:
  1681  0F8B  30FE               	movlw	254
  1682  0F8C  052F               	andwf	___xxtofl@arg+3,w
  1683  0F8D  1D03               	btfss	3,2
  1684  0F8E  2F90               	goto	u2421
  1685  0F8F  2F91               	goto	u2420
  1686  0F90                     u2421:
  1687  0F90  2F7E               	goto	l1628
  1688  0F91                     u2420:
  1689  0F91  2FAD               	goto	l524
  1690  0F92                     l1632:
  1691  0F92  3001               	movlw	1
  1692  0F93  00A6               	movwf	??___xxtofl
  1693  0F94  0826               	movf	??___xxtofl,w
  1694  0F95  07AB               	addwf	___xxtofl@exp,f
  1695  0F96                     l1634:
  1696  0F96  3001               	movlw	1
  1697  0F97  07AC               	addwf	___xxtofl@arg,f
  1698  0F98  3000               	movlw	0
  1699  0F99  1803               	skipnc
  1700  0F9A  3001               	movlw	1
  1701  0F9B  07AD               	addwf	___xxtofl@arg+1,f
  1702  0F9C  3000               	movlw	0
  1703  0F9D  1803               	skipnc
  1704  0F9E  3001               	movlw	1
  1705  0F9F  07AE               	addwf	___xxtofl@arg+2,f
  1706  0FA0  3000               	movlw	0
  1707  0FA1  1803               	skipnc
  1708  0FA2  3001               	movlw	1
  1709  0FA3  07AF               	addwf	___xxtofl@arg+3,f
  1710  0FA4                     l1636:
  1711  0FA4  3001               	movlw	1
  1712  0FA5                     u2435:
  1713  0FA5  1003               	clrc
  1714  0FA6  0CAF               	rrf	___xxtofl@arg+3,f
  1715  0FA7  0CAE               	rrf	___xxtofl@arg+2,f
  1716  0FA8  0CAD               	rrf	___xxtofl@arg+1,f
  1717  0FA9  0CAC               	rrf	___xxtofl@arg,f
  1718  0FAA  3EFF               	addlw	-1
  1719  0FAB  1D03               	skipz
  1720  0FAC  2FA5               	goto	u2435
  1721  0FAD                     l524:
  1722  0FAD  30FF               	movlw	255
  1723  0FAE  052F               	andwf	___xxtofl@arg+3,w
  1724  0FAF  1D03               	btfss	3,2
  1725  0FB0  2FB2               	goto	u2441
  1726  0FB1  2FB3               	goto	u2440
  1727  0FB2                     u2441:
  1728  0FB2  2F92               	goto	l1632
  1729  0FB3                     u2440:
  1730  0FB3  2FBF               	goto	l1640
  1731  0FB4                     l1638:
  1732  0FB4  3001               	movlw	1
  1733  0FB5  02AB               	subwf	___xxtofl@exp,f
  1734  0FB6  3001               	movlw	1
  1735  0FB7  00A6               	movwf	??___xxtofl
  1736  0FB8                     u2455:
  1737  0FB8  1003               	clrc
  1738  0FB9  0DAC               	rlf	___xxtofl@arg,f
  1739  0FBA  0DAD               	rlf	___xxtofl@arg+1,f
  1740  0FBB  0DAE               	rlf	___xxtofl@arg+2,f
  1741  0FBC  0DAF               	rlf	___xxtofl@arg+3,f
  1742  0FBD  0BA6               	decfsz	??___xxtofl,f
  1743  0FBE  2FB8               	goto	u2455
  1744  0FBF                     l1640:
  1745  0FBF  1BAE               	btfsc	___xxtofl@arg+2,7
  1746  0FC0  2FC2               	goto	u2461
  1747  0FC1  2FC3               	goto	u2460
  1748  0FC2                     u2461:
  1749  0FC2  2FC9               	goto	l531
  1750  0FC3                     u2460:
  1751  0FC3                     l1642:
  1752  0FC3  3002               	movlw	2
  1753  0FC4  022B               	subwf	___xxtofl@exp,w
  1754  0FC5  1803               	skipnc
  1755  0FC6  2FC8               	goto	u2471
  1756  0FC7  2FC9               	goto	u2470
  1757  0FC8                     u2471:
  1758  0FC8  2FB4               	goto	l1638
  1759  0FC9                     u2470:
  1760  0FC9                     l531:
  1761  0FC9  182B               	btfsc	___xxtofl@exp,0
  1762  0FCA  2FCC               	goto	u2481
  1763  0FCB  2FCD               	goto	u2480
  1764  0FCC                     u2481:
  1765  0FCC  2FD5               	goto	l532
  1766  0FCD                     u2480:
  1767  0FCD                     l1644:
  1768  0FCD  30FF               	movlw	255
  1769  0FCE  05AC               	andwf	___xxtofl@arg,f
  1770  0FCF  30FF               	movlw	255
  1771  0FD0  05AD               	andwf	___xxtofl@arg+1,f
  1772  0FD1  307F               	movlw	127
  1773  0FD2  05AE               	andwf	___xxtofl@arg+2,f
  1774  0FD3  30FF               	movlw	255
  1775  0FD4  05AF               	andwf	___xxtofl@arg+3,f
  1776  0FD5                     l532:
  1777  0FD5  1003               	clrc
  1778  0FD6  0CAB               	rrf	___xxtofl@exp,f
  1779  0FD7                     l1646:
  1780  0FD7  082B               	movf	___xxtofl@exp,w
  1781  0FD8  00A6               	movwf	??___xxtofl
  1782  0FD9  01A7               	clrf	??___xxtofl+1
  1783  0FDA  01A8               	clrf	??___xxtofl+2
  1784  0FDB  01A9               	clrf	??___xxtofl+3
  1785  0FDC  3018               	movlw	24
  1786  0FDD                     u2495:
  1787  0FDD  1003               	clrc
  1788  0FDE  0DA6               	rlf	??___xxtofl,f
  1789  0FDF  0DA7               	rlf	??___xxtofl+1,f
  1790  0FE0  0DA8               	rlf	??___xxtofl+2,f
  1791  0FE1  0DA9               	rlf	??___xxtofl+3,f
  1792  0FE2                     u2490:
  1793  0FE2  3EFF               	addlw	-1
  1794  0FE3  1D03               	skipz
  1795  0FE4  2FDD               	goto	u2495
  1796  0FE5  0826               	movf	??___xxtofl,w
  1797  0FE6  04AC               	iorwf	___xxtofl@arg,f
  1798  0FE7  0827               	movf	??___xxtofl+1,w
  1799  0FE8  04AD               	iorwf	___xxtofl@arg+1,f
  1800  0FE9  0828               	movf	??___xxtofl+2,w
  1801  0FEA  04AE               	iorwf	___xxtofl@arg+2,f
  1802  0FEB  0829               	movf	??___xxtofl+3,w
  1803  0FEC  04AF               	iorwf	___xxtofl@arg+3,f
  1804  0FED                     l1648:
  1805  0FED  082A               	movf	___xxtofl@sign,w
  1806  0FEE  1903               	btfsc	3,2
  1807  0FEF  2FF1               	goto	u2501
  1808  0FF0  2FF2               	goto	u2500
  1809  0FF1                     u2501:
  1810  0FF1  2FF7               	goto	l1654
  1811  0FF2                     u2500:
  1812  0FF2                     l1650:
  1813  0FF2  1FA5               	btfss	___xxtofl@val+3,7
  1814  0FF3  2FF5               	goto	u2511
  1815  0FF4  2FF6               	goto	u2510
  1816  0FF5                     u2511:
  1817  0FF5  2FF7               	goto	l1654
  1818  0FF6                     u2510:
  1819  0FF6                     l1652:
  1820  0FF6  17AF               	bsf	___xxtofl@arg+3,7
  1821  0FF7                     l1654:
  1822  0FF7  082F               	movf	___xxtofl@arg+3,w
  1823  0FF8  00A5               	movwf	?___xxtofl+3
  1824  0FF9  082E               	movf	___xxtofl@arg+2,w
  1825  0FFA  00A4               	movwf	?___xxtofl+2
  1826  0FFB  082D               	movf	___xxtofl@arg+1,w
  1827  0FFC  00A3               	movwf	?___xxtofl+1
  1828  0FFD  082C               	movf	___xxtofl@arg,w
  1829  0FFE  00A2               	movwf	?___xxtofl
  1830  0FFF                     l520:
  1831  0FFF  0008               	return
  1832  1000                     __end_of___xxtofl:
  1833                           
  1834                           	psect	text6
  1835  0E3B                     __ptext6:	
  1836 ;; *************** function ___flsub *****************
  1837 ;; Defined at:
  1838 ;;		line 242 in file "C:\Program Files\Microchip\xc8\v2.32\pic\sources\c90\common\sprcadd.c"
  1839 ;; Parameters:    Size  Location     Type
  1840 ;;  a               4   22[BANK0 ] unsigned char 
  1841 ;;  b               4   26[BANK0 ] unsigned char 
  1842 ;; Auto vars:     Size  Location     Type
  1843 ;;		None
  1844 ;; Return value:  Size  Location     Type
  1845 ;;                  4   22[BANK0 ] unsigned char 
  1846 ;; Registers used:
  1847 ;;		wreg, status,2, status,0, btemp+1, pclath, cstack
  1848 ;; Tracked objects:
  1849 ;;		On entry : 0/0
  1850 ;;		On exit  : 0/0
  1851 ;;		Unchanged: 0/0
  1852 ;; Data sizes:     COMMON   BANK0   BANK1
  1853 ;;      Params:         0       8       0
  1854 ;;      Locals:         0       0       0
  1855 ;;      Temps:          0       0       0
  1856 ;;      Totals:         0       8       0
  1857 ;;Total ram usage:        8 bytes
  1858 ;; Hardware stack levels used: 1
  1859 ;; Hardware stack levels required when called: 2
  1860 ;; This function calls:
  1861 ;;		___fladd
  1862 ;; This function is called by:
  1863 ;;		_main
  1864 ;; This function uses a non-reentrant model
  1865 ;;
  1866                           
  1867                           
  1868                           ;psect for function ___flsub
  1869  0E3B                     ___flsub:
  1870  0E3B                     l1468:	
  1871                           ;incstack = 0
  1872                           ; Regs used in ___flsub: [wreg+status,2+status,0+btemp+1+pclath+cstack]
  1873                           
  1874  0E3B  3080               	movlw	128
  1875  0E3C  1283               	bcf	3,5	;RP0=0, select bank0
  1876  0E3D  1303               	bcf	3,6	;RP1=0, select bank0
  1877  0E3E  06B9               	xorwf	___flsub@a+3,f
  1878  0E3F                     l1470:
  1879  0E3F  083D               	movf	___flsub@b+3,w
  1880  0E40  00A5               	movwf	___fladd@b+3
  1881  0E41  083C               	movf	___flsub@b+2,w
  1882  0E42  00A4               	movwf	___fladd@b+2
  1883  0E43  083B               	movf	___flsub@b+1,w
  1884  0E44  00A3               	movwf	___fladd@b+1
  1885  0E45  083A               	movf	___flsub@b,w
  1886  0E46  00A2               	movwf	___fladd@b
  1887  0E47  0839               	movf	___flsub@a+3,w
  1888  0E48  00A9               	movwf	___fladd@a+3
  1889  0E49  0838               	movf	___flsub@a+2,w
  1890  0E4A  00A8               	movwf	___fladd@a+2
  1891  0E4B  0837               	movf	___flsub@a+1,w
  1892  0E4C  00A7               	movwf	___fladd@a+1
  1893  0E4D  0836               	movf	___flsub@a,w
  1894  0E4E  00A6               	movwf	___fladd@a
  1895  0E4F  118A  2361  158A   	fcall	___fladd
  1896  0E52  1283               	bcf	3,5	;RP0=0, select bank0
  1897  0E53  1303               	bcf	3,6	;RP1=0, select bank0
  1898  0E54  0825               	movf	?___fladd+3,w
  1899  0E55  00B9               	movwf	?___flsub+3
  1900  0E56  0824               	movf	?___fladd+2,w
  1901  0E57  00B8               	movwf	?___flsub+2
  1902  0E58  0823               	movf	?___fladd+1,w
  1903  0E59  00B7               	movwf	?___flsub+1
  1904  0E5A  0822               	movf	?___fladd,w
  1905  0E5B  00B6               	movwf	?___flsub
  1906  0E5C                     l424:
  1907  0E5C  0008               	return
  1908  0E5D                     __end_of___flsub:
  1909                           
  1910                           	psect	text7
  1911  0361                     __ptext7:	
  1912 ;; *************** function ___fladd *****************
  1913 ;; Defined at:
  1914 ;;		line 10 in file "C:\Program Files\Microchip\xc8\v2.32\pic\sources\c90\common\sprcadd.c"
  1915 ;; Parameters:    Size  Location     Type
  1916 ;;  b               4    2[BANK0 ] unsigned char 
  1917 ;;  a               4    6[BANK0 ] unsigned char 
  1918 ;; Auto vars:     Size  Location     Type
  1919 ;;  grs             1   21[BANK0 ] unsigned char 
  1920 ;;  bexp            1   20[BANK0 ] unsigned char 
  1921 ;;  aexp            1   19[BANK0 ] unsigned char 
  1922 ;;  signs           1   18[BANK0 ] unsigned char 
  1923 ;; Return value:  Size  Location     Type
  1924 ;;                  4    2[BANK0 ] unsigned char 
  1925 ;; Registers used:
  1926 ;;		wreg, status,2, status,0, btemp+1
  1927 ;; Tracked objects:
  1928 ;;		On entry : 0/0
  1929 ;;		On exit  : 0/0
  1930 ;;		Unchanged: 0/0
  1931 ;; Data sizes:     COMMON   BANK0   BANK1
  1932 ;;      Params:         0       8       0
  1933 ;;      Locals:         0       4       0
  1934 ;;      Temps:          0       8       0
  1935 ;;      Totals:         0      20       0
  1936 ;;Total ram usage:       20 bytes
  1937 ;; Hardware stack levels used: 1
  1938 ;; Hardware stack levels required when called: 1
  1939 ;; This function calls:
  1940 ;;		Nothing
  1941 ;; This function is called by:
  1942 ;;		___flsub
  1943 ;; This function uses a non-reentrant model
  1944 ;;
  1945                           
  1946                           
  1947                           ;psect for function ___fladd
  1948  0361                     ___fladd:
  1949  0361                     l1206:	
  1950                           ;incstack = 0
  1951                           ; Regs used in ___fladd: [wreg+status,2+status,0+btemp+1]
  1952                           
  1953  0361  1283               	bcf	3,5	;RP0=0, select bank0
  1954  0362  1303               	bcf	3,6	;RP1=0, select bank0
  1955  0363  0825               	movf	___fladd@b+3,w
  1956  0364  3980               	andlw	128
  1957  0365  00AA               	movwf	??___fladd
  1958  0366  082A               	movf	??___fladd,w
  1959  0367  00B2               	movwf	___fladd@signs
  1960  0368                     l1208:
  1961  0368  0825               	movf	___fladd@b+3,w
  1962  0369  00AA               	movwf	??___fladd
  1963  036A  072A               	addwf	??___fladd,w
  1964  036B  00AB               	movwf	??___fladd+1
  1965  036C  082B               	movf	??___fladd+1,w
  1966  036D  00B4               	movwf	___fladd@bexp
  1967  036E                     l1210:
  1968  036E  1FA4               	btfss	___fladd@b+2,7
  1969  036F  2B71               	goto	u1421
  1970  0370  2B72               	goto	u1420
  1971  0371                     u1421:
  1972  0371  2B73               	goto	l1214
  1973  0372                     u1420:
  1974  0372                     l1212:
  1975  0372  1434               	bsf	___fladd@bexp,0
  1976  0373                     l1214:
  1977  0373  0834               	movf	___fladd@bexp,w
  1978  0374  1903               	btfsc	3,2
  1979  0375  2B77               	goto	u1431
  1980  0376  2B78               	goto	u1430
  1981  0377                     u1431:
  1982  0377  2B88               	goto	l1224
  1983  0378                     u1430:
  1984  0378                     l1216:
  1985  0378  0A34               	incf	___fladd@bexp,w
  1986  0379  1D03               	btfss	3,2
  1987  037A  2B7C               	goto	u1441
  1988  037B  2B7D               	goto	u1440
  1989  037C                     u1441:
  1990  037C  2B85               	goto	l1220
  1991  037D                     u1440:
  1992  037D                     l1218:
  1993  037D  3000               	movlw	0
  1994  037E  00A5               	movwf	___fladd@b+3
  1995  037F  3000               	movlw	0
  1996  0380  00A4               	movwf	___fladd@b+2
  1997  0381  3000               	movlw	0
  1998  0382  00A3               	movwf	___fladd@b+1
  1999  0383  3000               	movlw	0
  2000  0384  00A2               	movwf	___fladd@b
  2001  0385                     l1220:
  2002  0385  17A4               	bsf	___fladd@b+2,7
  2003  0386                     l1222:
  2004  0386  01A5               	clrf	___fladd@b+3
  2005  0387  2B90               	goto	l1226
  2006  0388                     l1224:
  2007  0388  3000               	movlw	0
  2008  0389  00A5               	movwf	___fladd@b+3
  2009  038A  3000               	movlw	0
  2010  038B  00A4               	movwf	___fladd@b+2
  2011  038C  3000               	movlw	0
  2012  038D  00A3               	movwf	___fladd@b+1
  2013  038E  3000               	movlw	0
  2014  038F  00A2               	movwf	___fladd@b
  2015  0390                     l1226:
  2016  0390  0829               	movf	___fladd@a+3,w
  2017  0391  3980               	andlw	128
  2018  0392  00AA               	movwf	??___fladd
  2019  0393  082A               	movf	??___fladd,w
  2020  0394  00B3               	movwf	___fladd@aexp
  2021  0395                     l1228:
  2022  0395  0833               	movf	___fladd@aexp,w
  2023  0396  0632               	xorwf	___fladd@signs,w
  2024  0397  1903               	skipnz
  2025  0398  2B9A               	goto	u1451
  2026  0399  2B9B               	goto	u1450
  2027  039A                     u1451:
  2028  039A  2B9C               	goto	l1232
  2029  039B                     u1450:
  2030  039B                     l1230:
  2031  039B  1732               	bsf	___fladd@signs,6
  2032  039C                     l1232:
  2033  039C  0829               	movf	___fladd@a+3,w
  2034  039D  00AA               	movwf	??___fladd
  2035  039E  072A               	addwf	??___fladd,w
  2036  039F  00AB               	movwf	??___fladd+1
  2037  03A0  082B               	movf	??___fladd+1,w
  2038  03A1  00B3               	movwf	___fladd@aexp
  2039  03A2                     l1234:
  2040  03A2  1FA8               	btfss	___fladd@a+2,7
  2041  03A3  2BA5               	goto	u1461
  2042  03A4  2BA6               	goto	u1460
  2043  03A5                     u1461:
  2044  03A5  2BA7               	goto	l1238
  2045  03A6                     u1460:
  2046  03A6                     l1236:
  2047  03A6  1433               	bsf	___fladd@aexp,0
  2048  03A7                     l1238:
  2049  03A7  0833               	movf	___fladd@aexp,w
  2050  03A8  1903               	btfsc	3,2
  2051  03A9  2BAB               	goto	u1471
  2052  03AA  2BAC               	goto	u1470
  2053  03AB                     u1471:
  2054  03AB  2BBC               	goto	l1248
  2055  03AC                     u1470:
  2056  03AC                     l1240:
  2057  03AC  0A33               	incf	___fladd@aexp,w
  2058  03AD  1D03               	btfss	3,2
  2059  03AE  2BB0               	goto	u1481
  2060  03AF  2BB1               	goto	u1480
  2061  03B0                     u1481:
  2062  03B0  2BB9               	goto	l1244
  2063  03B1                     u1480:
  2064  03B1                     l1242:
  2065  03B1  3000               	movlw	0
  2066  03B2  00A9               	movwf	___fladd@a+3
  2067  03B3  3000               	movlw	0
  2068  03B4  00A8               	movwf	___fladd@a+2
  2069  03B5  3000               	movlw	0
  2070  03B6  00A7               	movwf	___fladd@a+1
  2071  03B7  3000               	movlw	0
  2072  03B8  00A6               	movwf	___fladd@a
  2073  03B9                     l1244:
  2074  03B9  17A8               	bsf	___fladd@a+2,7
  2075  03BA                     l1246:
  2076  03BA  01A9               	clrf	___fladd@a+3
  2077  03BB  2BC4               	goto	l378
  2078  03BC                     l1248:
  2079  03BC  3000               	movlw	0
  2080  03BD  00A9               	movwf	___fladd@a+3
  2081  03BE  3000               	movlw	0
  2082  03BF  00A8               	movwf	___fladd@a+2
  2083  03C0  3000               	movlw	0
  2084  03C1  00A7               	movwf	___fladd@a+1
  2085  03C2  3000               	movlw	0
  2086  03C3  00A6               	movwf	___fladd@a
  2087  03C4                     l378:
  2088  03C4  0834               	movf	___fladd@bexp,w
  2089  03C5  0233               	subwf	___fladd@aexp,w
  2090  03C6  1803               	skipnc
  2091  03C7  2BC9               	goto	u1491
  2092  03C8  2BCA               	goto	u1490
  2093  03C9                     u1491:
  2094  03C9  2C0E               	goto	l1284
  2095  03CA                     u1490:
  2096  03CA                     l1250:
  2097  03CA  1F32               	btfss	___fladd@signs,6
  2098  03CB  2BCD               	goto	u1501
  2099  03CC  2BCE               	goto	u1500
  2100  03CD                     u1501:
  2101  03CD  2BD2               	goto	l1254
  2102  03CE                     u1500:
  2103  03CE                     l1252:
  2104  03CE  3080               	movlw	128
  2105  03CF  00AA               	movwf	??___fladd
  2106  03D0  082A               	movf	??___fladd,w
  2107  03D1  06B2               	xorwf	___fladd@signs,f
  2108  03D2                     l1254:
  2109  03D2  0834               	movf	___fladd@bexp,w
  2110  03D3  00AA               	movwf	??___fladd
  2111  03D4  082A               	movf	??___fladd,w
  2112  03D5  00B5               	movwf	___fladd@grs
  2113  03D6                     l1256:
  2114  03D6  0833               	movf	___fladd@aexp,w
  2115  03D7  00AA               	movwf	??___fladd
  2116  03D8  082A               	movf	??___fladd,w
  2117  03D9  00B4               	movwf	___fladd@bexp
  2118  03DA                     l1258:
  2119  03DA  0835               	movf	___fladd@grs,w
  2120  03DB  00AA               	movwf	??___fladd
  2121  03DC  082A               	movf	??___fladd,w
  2122  03DD  00B3               	movwf	___fladd@aexp
  2123  03DE                     l1260:
  2124  03DE  0822               	movf	___fladd@b,w
  2125  03DF  00AA               	movwf	??___fladd
  2126  03E0  082A               	movf	??___fladd,w
  2127  03E1  00B5               	movwf	___fladd@grs
  2128  03E2                     l1262:
  2129  03E2  0826               	movf	___fladd@a,w
  2130  03E3  00AA               	movwf	??___fladd
  2131  03E4  082A               	movf	??___fladd,w
  2132  03E5  00A2               	movwf	___fladd@b
  2133  03E6                     l1264:
  2134  03E6  0835               	movf	___fladd@grs,w
  2135  03E7  00AA               	movwf	??___fladd
  2136  03E8  082A               	movf	??___fladd,w
  2137  03E9  00A6               	movwf	___fladd@a
  2138  03EA                     l1266:
  2139  03EA  0823               	movf	___fladd@b+1,w
  2140  03EB  00AA               	movwf	??___fladd
  2141  03EC  082A               	movf	??___fladd,w
  2142  03ED  00B5               	movwf	___fladd@grs
  2143  03EE                     l1268:
  2144  03EE  0827               	movf	___fladd@a+1,w
  2145  03EF  00AA               	movwf	??___fladd
  2146  03F0  082A               	movf	??___fladd,w
  2147  03F1  00A3               	movwf	___fladd@b+1
  2148  03F2                     l1270:
  2149  03F2  0835               	movf	___fladd@grs,w
  2150  03F3  00AA               	movwf	??___fladd
  2151  03F4  082A               	movf	??___fladd,w
  2152  03F5  00A7               	movwf	___fladd@a+1
  2153  03F6                     l1272:
  2154  03F6  0824               	movf	___fladd@b+2,w
  2155  03F7  00AA               	movwf	??___fladd
  2156  03F8  082A               	movf	??___fladd,w
  2157  03F9  00B5               	movwf	___fladd@grs
  2158  03FA                     l1274:
  2159  03FA  0828               	movf	___fladd@a+2,w
  2160  03FB  00AA               	movwf	??___fladd
  2161  03FC  082A               	movf	??___fladd,w
  2162  03FD  00A4               	movwf	___fladd@b+2
  2163  03FE                     l1276:
  2164  03FE  0835               	movf	___fladd@grs,w
  2165  03FF  00AA               	movwf	??___fladd
  2166  0400  082A               	movf	??___fladd,w
  2167  0401  00A8               	movwf	___fladd@a+2
  2168  0402                     l1278:
  2169  0402  0825               	movf	___fladd@b+3,w
  2170  0403  00AA               	movwf	??___fladd
  2171  0404  082A               	movf	??___fladd,w
  2172  0405  00B5               	movwf	___fladd@grs
  2173  0406                     l1280:
  2174  0406  0829               	movf	___fladd@a+3,w
  2175  0407  00AA               	movwf	??___fladd
  2176  0408  082A               	movf	??___fladd,w
  2177  0409  00A5               	movwf	___fladd@b+3
  2178  040A                     l1282:
  2179  040A  0835               	movf	___fladd@grs,w
  2180  040B  00AA               	movwf	??___fladd
  2181  040C  082A               	movf	??___fladd,w
  2182  040D  00A9               	movwf	___fladd@a+3
  2183  040E                     l1284:
  2184  040E  01B5               	clrf	___fladd@grs
  2185  040F                     l1286:
  2186  040F  0833               	movf	___fladd@aexp,w
  2187  0410  00AA               	movwf	??___fladd
  2188  0411  01AB               	clrf	??___fladd+1
  2189  0412  082B               	movf	??___fladd+1,w
  2190  0413  00AD               	movwf	??___fladd+3
  2191  0414  0834               	movf	___fladd@bexp,w
  2192  0415  022A               	subwf	??___fladd,w
  2193  0416  00AC               	movwf	??___fladd+2
  2194  0417  1C03               	skipc
  2195  0418  03AD               	decf	??___fladd+3,f
  2196  0419  082D               	movf	??___fladd+3,w
  2197  041A  3A80               	xorlw	128
  2198  041B  00FF               	movwf	btemp+1
  2199  041C  3080               	movlw	128
  2200  041D  027F               	subwf	btemp+1,w
  2201  041E  1D03               	skipz
  2202  041F  2C22               	goto	u1515
  2203  0420  301A               	movlw	26
  2204  0421  022C               	subwf	??___fladd+2,w
  2205  0422                     u1515:
  2206  0422  1C03               	skipc
  2207  0423  2C25               	goto	u1511
  2208  0424  2C26               	goto	u1510
  2209  0425                     u1511:
  2210  0425  2C63               	goto	l1302
  2211  0426                     u1510:
  2212  0426                     l1288:
  2213  0426  1283               	bcf	3,5	;RP0=0, select bank0
  2214  0427  1303               	bcf	3,6	;RP1=0, select bank0
  2215  0428  0825               	movf	___fladd@b+3,w
  2216  0429  0424               	iorwf	___fladd@b+2,w
  2217  042A  0423               	iorwf	___fladd@b+1,w
  2218  042B  0422               	iorwf	___fladd@b,w
  2219  042C  1D03               	skipz
  2220  042D  2C2F               	goto	u1521
  2221  042E  2C31               	goto	u1520
  2222  042F                     u1521:
  2223  042F  3001               	movlw	1
  2224  0430  2C32               	goto	u1530
  2225  0431                     u1520:
  2226  0431  3000               	movlw	0
  2227  0432                     u1530:
  2228  0432  00AA               	movwf	??___fladd
  2229  0433  082A               	movf	??___fladd,w
  2230  0434  00B5               	movwf	___fladd@grs
  2231  0435  3000               	movlw	0
  2232  0436  00A5               	movwf	___fladd@b+3
  2233  0437  3000               	movlw	0
  2234  0438  00A4               	movwf	___fladd@b+2
  2235  0439  3000               	movlw	0
  2236  043A  00A3               	movwf	___fladd@b+1
  2237  043B  3000               	movlw	0
  2238  043C  00A2               	movwf	___fladd@b
  2239  043D  0833               	movf	___fladd@aexp,w
  2240  043E  00AA               	movwf	??___fladd
  2241  043F  082A               	movf	??___fladd,w
  2242  0440  00B4               	movwf	___fladd@bexp
  2243  0441  2C6B               	goto	l382
  2244  0442                     l384:
  2245  0442  1C35               	btfss	___fladd@grs,0
  2246  0443  2C45               	goto	u1541
  2247  0444  2C46               	goto	u1540
  2248  0445                     u1541:
  2249  0445  2C4F               	goto	l1292
  2250  0446                     u1540:
  2251  0446                     l1290:
  2252  0446  0835               	movf	___fladd@grs,w
  2253  0447  00AA               	movwf	??___fladd
  2254  0448  1003               	clrc
  2255  0449  0C2A               	rrf	??___fladd,w
  2256  044A  3801               	iorlw	1
  2257  044B  00AB               	movwf	??___fladd+1
  2258  044C  082B               	movf	??___fladd+1,w
  2259  044D  00B5               	movwf	___fladd@grs
  2260  044E  2C51               	goto	l1294
  2261  044F                     l1292:
  2262  044F  1003               	clrc
  2263  0450  0CB5               	rrf	___fladd@grs,f
  2264  0451                     l1294:
  2265  0451  1C22               	btfss	___fladd@b,0
  2266  0452  2C54               	goto	u1551
  2267  0453  2C55               	goto	u1550
  2268  0454                     u1551:
  2269  0454  2C56               	goto	l1298
  2270  0455                     u1550:
  2271  0455                     l1296:
  2272  0455  17B5               	bsf	___fladd@grs,7
  2273  0456                     l1298:
  2274  0456  3001               	movlw	1
  2275  0457  00AA               	movwf	??___fladd
  2276  0458                     u1565:
  2277  0458  0D25               	rlf	___fladd@b+3,w
  2278  0459  0CA5               	rrf	___fladd@b+3,f
  2279  045A  0CA4               	rrf	___fladd@b+2,f
  2280  045B  0CA3               	rrf	___fladd@b+1,f
  2281  045C  0CA2               	rrf	___fladd@b,f
  2282  045D  0BAA               	decfsz	??___fladd& (0+127),f
  2283  045E  2C58               	goto	u1565
  2284  045F                     l1300:
  2285  045F  3001               	movlw	1
  2286  0460  00AA               	movwf	??___fladd
  2287  0461  082A               	movf	??___fladd,w
  2288  0462  07B4               	addwf	___fladd@bexp,f
  2289  0463                     l1302:
  2290  0463  1283               	bcf	3,5	;RP0=0, select bank0
  2291  0464  1303               	bcf	3,6	;RP1=0, select bank0
  2292  0465  0833               	movf	___fladd@aexp,w
  2293  0466  0234               	subwf	___fladd@bexp,w
  2294  0467  1C03               	skipc
  2295  0468  2C6A               	goto	u1571
  2296  0469  2C6B               	goto	u1570
  2297  046A                     u1571:
  2298  046A  2C42               	goto	l384
  2299  046B                     u1570:
  2300  046B                     l382:
  2301  046B  1B32               	btfsc	___fladd@signs,6
  2302  046C  2C6E               	goto	u1581
  2303  046D  2C6F               	goto	u1580
  2304  046E                     u1581:
  2305  046E  2CBA               	goto	l1328
  2306  046F                     u1580:
  2307  046F                     l1304:
  2308  046F  0834               	movf	___fladd@bexp,w
  2309  0470  1D03               	btfss	3,2
  2310  0471  2C73               	goto	u1591
  2311  0472  2C74               	goto	u1590
  2312  0473                     u1591:
  2313  0473  2C7D               	goto	l1310
  2314  0474                     u1590:
  2315  0474                     l1306:
  2316  0474  3000               	movlw	0
  2317  0475  00A5               	movwf	?___fladd+3
  2318  0476  3000               	movlw	0
  2319  0477  00A4               	movwf	?___fladd+2
  2320  0478  3000               	movlw	0
  2321  0479  00A3               	movwf	?___fladd+1
  2322  047A  3000               	movlw	0
  2323  047B  00A2               	movwf	?___fladd
  2324  047C  2DE8               	goto	l391
  2325  047D                     l1310:
  2326  047D  0826               	movf	___fladd@a,w
  2327  047E  07A2               	addwf	___fladd@b,f
  2328  047F  0827               	movf	___fladd@a+1,w
  2329  0480  1103               	clrz
  2330  0481  1803               	skipnc
  2331  0482  3E01               	addlw	1
  2332  0483  1903               	skipnz
  2333  0484  2C86               	goto	u1601
  2334  0485  07A3               	addwf	___fladd@b+1,f
  2335  0486                     u1601:
  2336  0486  0828               	movf	___fladd@a+2,w
  2337  0487  1103               	clrz
  2338  0488  1803               	skipnc
  2339  0489  3E01               	addlw	1
  2340  048A  1903               	skipnz
  2341  048B  2C8D               	goto	u1602
  2342  048C  07A4               	addwf	___fladd@b+2,f
  2343  048D                     u1602:
  2344  048D  0829               	movf	___fladd@a+3,w
  2345  048E  1103               	clrz
  2346  048F  1803               	skipnc
  2347  0490  3E01               	addlw	1
  2348  0491  1903               	skipnz
  2349  0492  2C94               	goto	u1603
  2350  0493  07A5               	addwf	___fladd@b+3,f
  2351  0494                     u1603:
  2352  0494                     l1312:
  2353  0494  1C25               	btfss	___fladd@b+3,0
  2354  0495  2C97               	goto	u1611
  2355  0496  2C98               	goto	u1610
  2356  0497                     u1611:
  2357  0497  2D6E               	goto	l1362
  2358  0498                     u1610:
  2359  0498                     l1314:
  2360  0498  1C35               	btfss	___fladd@grs,0
  2361  0499  2C9B               	goto	u1621
  2362  049A  2C9C               	goto	u1620
  2363  049B                     u1621:
  2364  049B  2CA5               	goto	l1318
  2365  049C                     u1620:
  2366  049C                     l1316:
  2367  049C  0835               	movf	___fladd@grs,w
  2368  049D  00AA               	movwf	??___fladd
  2369  049E  1003               	clrc
  2370  049F  0C2A               	rrf	??___fladd,w
  2371  04A0  3801               	iorlw	1
  2372  04A1  00AB               	movwf	??___fladd+1
  2373  04A2  082B               	movf	??___fladd+1,w
  2374  04A3  00B5               	movwf	___fladd@grs
  2375  04A4  2CA7               	goto	l1320
  2376  04A5                     l1318:
  2377  04A5  1003               	clrc
  2378  04A6  0CB5               	rrf	___fladd@grs,f
  2379  04A7                     l1320:
  2380  04A7  1C22               	btfss	___fladd@b,0
  2381  04A8  2CAA               	goto	u1631
  2382  04A9  2CAB               	goto	u1630
  2383  04AA                     u1631:
  2384  04AA  2CAC               	goto	l1324
  2385  04AB                     u1630:
  2386  04AB                     l1322:
  2387  04AB  17B5               	bsf	___fladd@grs,7
  2388  04AC                     l1324:
  2389  04AC  3001               	movlw	1
  2390  04AD  00AA               	movwf	??___fladd
  2391  04AE                     u1645:
  2392  04AE  0D25               	rlf	___fladd@b+3,w
  2393  04AF  0CA5               	rrf	___fladd@b+3,f
  2394  04B0  0CA4               	rrf	___fladd@b+2,f
  2395  04B1  0CA3               	rrf	___fladd@b+1,f
  2396  04B2  0CA2               	rrf	___fladd@b,f
  2397  04B3  0BAA               	decfsz	??___fladd& (0+127),f
  2398  04B4  2CAE               	goto	u1645
  2399  04B5                     l1326:
  2400  04B5  3001               	movlw	1
  2401  04B6  00AA               	movwf	??___fladd
  2402  04B7  082A               	movf	??___fladd,w
  2403  04B8  07B4               	addwf	___fladd@bexp,f
  2404  04B9  2D6E               	goto	l1362
  2405  04BA                     l1328:
  2406  04BA  0825               	movf	___fladd@b+3,w
  2407  04BB  3A80               	xorlw	128
  2408  04BC  00FF               	movwf	btemp+1
  2409  04BD  0829               	movf	___fladd@a+3,w
  2410  04BE  3A80               	xorlw	128
  2411  04BF  027F               	subwf	btemp+1,w
  2412  04C0  1D03               	skipz
  2413  04C1  2CCC               	goto	u1653
  2414  04C2  0828               	movf	___fladd@a+2,w
  2415  04C3  0224               	subwf	___fladd@b+2,w
  2416  04C4  1D03               	skipz
  2417  04C5  2CCC               	goto	u1653
  2418  04C6  0827               	movf	___fladd@a+1,w
  2419  04C7  0223               	subwf	___fladd@b+1,w
  2420  04C8  1D03               	skipz
  2421  04C9  2CCC               	goto	u1653
  2422  04CA  0826               	movf	___fladd@a,w
  2423  04CB  0222               	subwf	___fladd@b,w
  2424  04CC                     u1653:
  2425  04CC  1803               	skipnc
  2426  04CD  2CCF               	goto	u1651
  2427  04CE  2CD0               	goto	u1650
  2428  04CF                     u1651:
  2429  04CF  2D28               	goto	l1338
  2430  04D0                     u1650:
  2431  04D0                     l1330:
  2432  04D0  30FF               	movlw	255
  2433  04D1  00AA               	movwf	??___fladd
  2434  04D2  30FF               	movlw	255
  2435  04D3  00AB               	movwf	??___fladd+1
  2436  04D4  30FF               	movlw	255
  2437  04D5  00AC               	movwf	??___fladd+2
  2438  04D6  30FF               	movlw	255
  2439  04D7  00AD               	movwf	??___fladd+3
  2440  04D8  0826               	movf	___fladd@a,w
  2441  04D9  00AE               	movwf	??___fladd+4
  2442  04DA  0827               	movf	___fladd@a+1,w
  2443  04DB  00AF               	movwf	??___fladd+5
  2444  04DC  0828               	movf	___fladd@a+2,w
  2445  04DD  00B0               	movwf	??___fladd+6
  2446  04DE  0829               	movf	___fladd@a+3,w
  2447  04DF  00B1               	movwf	??___fladd+7
  2448  04E0  0822               	movf	___fladd@b,w
  2449  04E1  02AE               	subwf	??___fladd+4,f
  2450  04E2  0823               	movf	___fladd@b+1,w
  2451  04E3  1C03               	skipc
  2452  04E4  0F23               	incfsz	___fladd@b+1,w
  2453  04E5  2CE7               	goto	u1661
  2454  04E6  2CE8               	goto	u1662
  2455  04E7                     u1661:
  2456  04E7  02AF               	subwf	??___fladd+5,f
  2457  04E8                     u1662:
  2458  04E8  0824               	movf	___fladd@b+2,w
  2459  04E9  1C03               	skipc
  2460  04EA  0F24               	incfsz	___fladd@b+2,w
  2461  04EB  2CED               	goto	u1663
  2462  04EC  2CEE               	goto	u1664
  2463  04ED                     u1663:
  2464  04ED  02B0               	subwf	??___fladd+6,f
  2465  04EE                     u1664:
  2466  04EE  0825               	movf	___fladd@b+3,w
  2467  04EF  1C03               	skipc
  2468  04F0  0F25               	incfsz	___fladd@b+3,w
  2469  04F1  2CF3               	goto	u1665
  2470  04F2  2CF4               	goto	u1666
  2471  04F3                     u1665:
  2472  04F3  02B1               	subwf	??___fladd+7,f
  2473  04F4                     u1666:
  2474  04F4  082E               	movf	??___fladd+4,w
  2475  04F5  07AA               	addwf	??___fladd,f
  2476  04F6  082F               	movf	??___fladd+5,w
  2477  04F7  1803               	skipnc
  2478  04F8  0F2F               	incfsz	??___fladd+5,w
  2479  04F9  2CFB               	goto	u1670
  2480  04FA  2CFC               	goto	u1671
  2481  04FB                     u1670:
  2482  04FB  07AB               	addwf	??___fladd+1,f
  2483  04FC                     u1671:
  2484  04FC  0830               	movf	??___fladd+6,w
  2485  04FD  1803               	skipnc
  2486  04FE  0F30               	incfsz	??___fladd+6,w
  2487  04FF  2D01               	goto	u1672
  2488  0500  2D02               	goto	u1673
  2489  0501                     u1672:
  2490  0501  07AC               	addwf	??___fladd+2,f
  2491  0502                     u1673:
  2492  0502  0831               	movf	??___fladd+7,w
  2493  0503  1803               	skipnc
  2494  0504  0A31               	incf	??___fladd+7,w
  2495  0505  07AD               	addwf	??___fladd+3,f
  2496  0506  082D               	movf	??___fladd+3,w
  2497  0507  00A5               	movwf	___fladd@b+3
  2498  0508  082C               	movf	??___fladd+2,w
  2499  0509  00A4               	movwf	___fladd@b+2
  2500  050A  082B               	movf	??___fladd+1,w
  2501  050B  00A3               	movwf	___fladd@b+1
  2502  050C  082A               	movf	??___fladd,w
  2503  050D  00A2               	movwf	___fladd@b
  2504  050E                     l1332:
  2505  050E  3080               	movlw	128
  2506  050F  00AA               	movwf	??___fladd
  2507  0510  082A               	movf	??___fladd,w
  2508  0511  06B2               	xorwf	___fladd@signs,f
  2509  0512  09B5               	comf	___fladd@grs,f
  2510  0513  0AB5               	incf	___fladd@grs,f
  2511  0514                     l1334:
  2512  0514  0835               	movf	___fladd@grs,w
  2513  0515  1D03               	btfss	3,2
  2514  0516  2D18               	goto	u1681
  2515  0517  2D19               	goto	u1680
  2516  0518                     u1681:
  2517  0518  2D36               	goto	l399
  2518  0519                     u1680:
  2519  0519                     l1336:
  2520  0519  3001               	movlw	1
  2521  051A  07A2               	addwf	___fladd@b,f
  2522  051B  3000               	movlw	0
  2523  051C  1803               	skipnc
  2524  051D  3001               	movlw	1
  2525  051E  07A3               	addwf	___fladd@b+1,f
  2526  051F  3000               	movlw	0
  2527  0520  1803               	skipnc
  2528  0521  3001               	movlw	1
  2529  0522  07A4               	addwf	___fladd@b+2,f
  2530  0523  3000               	movlw	0
  2531  0524  1803               	skipnc
  2532  0525  3001               	movlw	1
  2533  0526  07A5               	addwf	___fladd@b+3,f
  2534  0527  2D36               	goto	l399
  2535  0528                     l1338:
  2536  0528  0826               	movf	___fladd@a,w
  2537  0529  02A2               	subwf	___fladd@b,f
  2538  052A  0827               	movf	___fladd@a+1,w
  2539  052B  1C03               	skipc
  2540  052C  0F27               	incfsz	___fladd@a+1,w
  2541  052D  02A3               	subwf	___fladd@b+1,f
  2542  052E  0828               	movf	___fladd@a+2,w
  2543  052F  1C03               	skipc
  2544  0530  0F28               	incfsz	___fladd@a+2,w
  2545  0531  02A4               	subwf	___fladd@b+2,f
  2546  0532  0829               	movf	___fladd@a+3,w
  2547  0533  1C03               	skipc
  2548  0534  0F29               	incfsz	___fladd@a+3,w
  2549  0535  02A5               	subwf	___fladd@b+3,f
  2550  0536                     l399:
  2551  0536  0825               	movf	___fladd@b+3,w
  2552  0537  0424               	iorwf	___fladd@b+2,w
  2553  0538  0423               	iorwf	___fladd@b+1,w
  2554  0539  0422               	iorwf	___fladd@b,w
  2555  053A  1D03               	skipz
  2556  053B  2D3D               	goto	u1691
  2557  053C  2D3E               	goto	u1690
  2558  053D                     u1691:
  2559  053D  2D6A               	goto	l1360
  2560  053E                     u1690:
  2561  053E                     l1340:
  2562  053E  0835               	movf	___fladd@grs,w
  2563  053F  1D03               	btfss	3,2
  2564  0540  2D42               	goto	u1701
  2565  0541  2D43               	goto	u1700
  2566  0542                     u1701:
  2567  0542  2D6A               	goto	l1360
  2568  0543                     u1700:
  2569  0543                     l1342:
  2570  0543  3000               	movlw	0
  2571  0544  00A5               	movwf	?___fladd+3
  2572  0545  3000               	movlw	0
  2573  0546  00A4               	movwf	?___fladd+2
  2574  0547  3000               	movlw	0
  2575  0548  00A3               	movwf	?___fladd+1
  2576  0549  3000               	movlw	0
  2577  054A  00A2               	movwf	?___fladd
  2578  054B  2DE8               	goto	l391
  2579  054C                     l1346:
  2580  054C  3001               	movlw	1
  2581  054D  00AA               	movwf	??___fladd
  2582  054E                     u1715:
  2583  054E  1003               	clrc
  2584  054F  0DA2               	rlf	___fladd@b,f
  2585  0550  0DA3               	rlf	___fladd@b+1,f
  2586  0551  0DA4               	rlf	___fladd@b+2,f
  2587  0552  0DA5               	rlf	___fladd@b+3,f
  2588  0553  0BAA               	decfsz	??___fladd,f
  2589  0554  2D4E               	goto	u1715
  2590  0555                     l1348:
  2591  0555  1FB5               	btfss	___fladd@grs,7
  2592  0556  2D58               	goto	u1721
  2593  0557  2D59               	goto	u1720
  2594  0558                     u1721:
  2595  0558  2D5A               	goto	l403
  2596  0559                     u1720:
  2597  0559                     l1350:
  2598  0559  1422               	bsf	___fladd@b,0
  2599  055A                     l403:
  2600  055A  1C35               	btfss	___fladd@grs,0
  2601  055B  2D5D               	goto	u1731
  2602  055C  2D5E               	goto	u1730
  2603  055D                     u1731:
  2604  055D  2D61               	goto	l1354
  2605  055E                     u1730:
  2606  055E                     l1352:
  2607  055E  1403               	setc
  2608  055F  0DB5               	rlf	___fladd@grs,f
  2609  0560  2D63               	goto	l1356
  2610  0561                     l1354:
  2611  0561  1003               	clrc
  2612  0562  0DB5               	rlf	___fladd@grs,f
  2613  0563                     l1356:
  2614  0563  0834               	movf	___fladd@bexp,w
  2615  0564  1903               	btfsc	3,2
  2616  0565  2D67               	goto	u1741
  2617  0566  2D68               	goto	u1740
  2618  0567                     u1741:
  2619  0567  2D6A               	goto	l1360
  2620  0568                     u1740:
  2621  0568                     l1358:
  2622  0568  3001               	movlw	1
  2623  0569  02B4               	subwf	___fladd@bexp,f
  2624  056A                     l1360:
  2625  056A  1FA4               	btfss	___fladd@b+2,7
  2626  056B  2D6D               	goto	u1751
  2627  056C  2D6E               	goto	u1750
  2628  056D                     u1751:
  2629  056D  2D4C               	goto	l1346
  2630  056E                     u1750:
  2631  056E                     l1362:
  2632  056E  01B3               	clrf	___fladd@aexp
  2633  056F                     l1364:
  2634  056F  1FB5               	btfss	___fladd@grs,7
  2635  0570  2D72               	goto	u1761
  2636  0571  2D73               	goto	u1760
  2637  0572                     u1761:
  2638  0572  2D81               	goto	l1372
  2639  0573                     u1760:
  2640  0573                     l1366:
  2641  0573  0835               	movf	___fladd@grs,w
  2642  0574  397F               	andlw	127
  2643  0575  1903               	btfsc	3,2
  2644  0576  2D78               	goto	u1771
  2645  0577  2D79               	goto	u1770
  2646  0578                     u1771:
  2647  0578  2D7C               	goto	l409
  2648  0579                     u1770:
  2649  0579                     l1368:
  2650  0579  01B3               	clrf	___fladd@aexp
  2651  057A  0AB3               	incf	___fladd@aexp,f
  2652  057B  2D81               	goto	l1372
  2653  057C                     l409:
  2654  057C  1C22               	btfss	___fladd@b,0
  2655  057D  2D7F               	goto	u1781
  2656  057E  2D80               	goto	u1780
  2657  057F                     u1781:
  2658  057F  2D81               	goto	l1372
  2659  0580                     u1780:
  2660  0580  2D79               	goto	l1368
  2661  0581                     l1372:
  2662  0581  0833               	movf	___fladd@aexp,w
  2663  0582  1903               	btfsc	3,2
  2664  0583  2D85               	goto	u1791
  2665  0584  2D86               	goto	u1790
  2666  0585                     u1791:
  2667  0585  2DBA               	goto	l412
  2668  0586                     u1790:
  2669  0586                     l1374:
  2670  0586  3001               	movlw	1
  2671  0587  07A2               	addwf	___fladd@b,f
  2672  0588  3000               	movlw	0
  2673  0589  1803               	skipnc
  2674  058A  3001               	movlw	1
  2675  058B  07A3               	addwf	___fladd@b+1,f
  2676  058C  3000               	movlw	0
  2677  058D  1803               	skipnc
  2678  058E  3001               	movlw	1
  2679  058F  07A4               	addwf	___fladd@b+2,f
  2680  0590  3000               	movlw	0
  2681  0591  1803               	skipnc
  2682  0592  3001               	movlw	1
  2683  0593  07A5               	addwf	___fladd@b+3,f
  2684  0594                     l1376:
  2685  0594  1C25               	btfss	___fladd@b+3,0
  2686  0595  2D97               	goto	u1801
  2687  0596  2D98               	goto	u1800
  2688  0597                     u1801:
  2689  0597  2DBA               	goto	l412
  2690  0598                     u1800:
  2691  0598                     l1378:
  2692  0598  0822               	movf	___fladd@b,w
  2693  0599  00AA               	movwf	??___fladd
  2694  059A  0823               	movf	___fladd@b+1,w
  2695  059B  00AB               	movwf	??___fladd+1
  2696  059C  0824               	movf	___fladd@b+2,w
  2697  059D  00AC               	movwf	??___fladd+2
  2698  059E  0825               	movf	___fladd@b+3,w
  2699  059F  00AD               	movwf	??___fladd+3
  2700  05A0  3001               	movlw	1
  2701  05A1  00AE               	movwf	??___fladd+4
  2702  05A2                     u1815:
  2703  05A2  0D2D               	rlf	??___fladd+3,w
  2704  05A3  0CAD               	rrf	??___fladd+3,f
  2705  05A4  0CAC               	rrf	??___fladd+2,f
  2706  05A5  0CAB               	rrf	??___fladd+1,f
  2707  05A6  0CAA               	rrf	??___fladd,f
  2708  05A7                     u1810:
  2709  05A7  0BAE               	decfsz	??___fladd+4,f
  2710  05A8  2DA2               	goto	u1815
  2711  05A9  082D               	movf	??___fladd+3,w
  2712  05AA  00A5               	movwf	___fladd@b+3
  2713  05AB  082C               	movf	??___fladd+2,w
  2714  05AC  00A4               	movwf	___fladd@b+2
  2715  05AD  082B               	movf	??___fladd+1,w
  2716  05AE  00A3               	movwf	___fladd@b+1
  2717  05AF  082A               	movf	??___fladd,w
  2718  05B0  00A2               	movwf	___fladd@b
  2719  05B1  0A34               	incf	___fladd@bexp,w
  2720  05B2  1903               	btfsc	3,2
  2721  05B3  2DB5               	goto	u1821
  2722  05B4  2DB6               	goto	u1820
  2723  05B5                     u1821:
  2724  05B5  2DBA               	goto	l412
  2725  05B6                     u1820:
  2726  05B6                     l1380:
  2727  05B6  3001               	movlw	1
  2728  05B7  00AA               	movwf	??___fladd
  2729  05B8  082A               	movf	??___fladd,w
  2730  05B9  07B4               	addwf	___fladd@bexp,f
  2731  05BA                     l412:
  2732  05BA  0A34               	incf	___fladd@bexp,w
  2733  05BB  1903               	btfsc	3,2
  2734  05BC  2DBE               	goto	u1831
  2735  05BD  2DBF               	goto	u1830
  2736  05BE                     u1831:
  2737  05BE  2DC4               	goto	l1384
  2738  05BF                     u1830:
  2739  05BF                     l1382:
  2740  05BF  0834               	movf	___fladd@bexp,w
  2741  05C0  1D03               	btfss	3,2
  2742  05C1  2DC3               	goto	u1841
  2743  05C2  2DC4               	goto	u1840
  2744  05C3                     u1841:
  2745  05C3  2DD2               	goto	l1390
  2746  05C4                     u1840:
  2747  05C4                     l1384:
  2748  05C4  3000               	movlw	0
  2749  05C5  00A5               	movwf	___fladd@b+3
  2750  05C6  3000               	movlw	0
  2751  05C7  00A4               	movwf	___fladd@b+2
  2752  05C8  3000               	movlw	0
  2753  05C9  00A3               	movwf	___fladd@b+1
  2754  05CA  3000               	movlw	0
  2755  05CB  00A2               	movwf	___fladd@b
  2756  05CC                     l1386:
  2757  05CC  0834               	movf	___fladd@bexp,w
  2758  05CD  1D03               	btfss	3,2
  2759  05CE  2DD0               	goto	u1851
  2760  05CF  2DD1               	goto	u1850
  2761  05D0                     u1851:
  2762  05D0  2DD2               	goto	l1390
  2763  05D1                     u1850:
  2764  05D1                     l1388:
  2765  05D1  01B2               	clrf	___fladd@signs
  2766  05D2                     l1390:
  2767  05D2  1C34               	btfss	___fladd@bexp,0
  2768  05D3  2DD5               	goto	u1861
  2769  05D4  2DD6               	goto	u1860
  2770  05D5                     u1861:
  2771  05D5  2DD8               	goto	l1394
  2772  05D6                     u1860:
  2773  05D6                     l1392:
  2774  05D6  17A4               	bsf	___fladd@b+2,7
  2775  05D7  2DDC               	goto	l420
  2776  05D8                     l1394:
  2777  05D8  307F               	movlw	127
  2778  05D9  00AA               	movwf	??___fladd
  2779  05DA  082A               	movf	??___fladd,w
  2780  05DB  05A4               	andwf	___fladd@b+2,f
  2781  05DC                     l420:
  2782  05DC  0834               	movf	___fladd@bexp,w
  2783  05DD  00AA               	movwf	??___fladd
  2784  05DE  1003               	clrc
  2785  05DF  0C2A               	rrf	??___fladd,w
  2786  05E0  00AB               	movwf	??___fladd+1
  2787  05E1  082B               	movf	??___fladd+1,w
  2788  05E2  00A5               	movwf	___fladd@b+3
  2789  05E3                     l1396:
  2790  05E3  1FB2               	btfss	___fladd@signs,7
  2791  05E4  2DE6               	goto	u1871
  2792  05E5  2DE7               	goto	u1870
  2793  05E6                     u1871:
  2794  05E6  2DE8               	goto	l421
  2795  05E7                     u1870:
  2796  05E7                     l1398:
  2797  05E7  17A5               	bsf	___fladd@b+3,7
  2798  05E8                     l421:
  2799  05E8                     l391:
  2800  05E8  0008               	return
  2801  05E9                     __end_of___fladd:
  2802                           
  2803                           	psect	text8
  2804  0012                     __ptext8:	
  2805 ;; *************** function ___flmul *****************
  2806 ;; Defined at:
  2807 ;;		line 8 in file "C:\Program Files\Microchip\xc8\v2.32\pic\sources\c90\common\sprcmul.c"
  2808 ;; Parameters:    Size  Location     Type
  2809 ;;  b               4   11[BANK0 ] unsigned char 
  2810 ;;  a               4   15[BANK0 ] unsigned char 
  2811 ;; Auto vars:     Size  Location     Type
  2812 ;;  prod            4   31[BANK0 ] struct .
  2813 ;;  grs             4   25[BANK0 ] unsigned long 
  2814 ;;  temp            2   35[BANK0 ] struct .
  2815 ;;  bexp            1   30[BANK0 ] unsigned char 
  2816 ;;  aexp            1   29[BANK0 ] unsigned char 
  2817 ;;  sign            1   24[BANK0 ] unsigned char 
  2818 ;; Return value:  Size  Location     Type
  2819 ;;                  4   11[BANK0 ] unsigned char 
  2820 ;; Registers used:
  2821 ;;		wreg, status,2, status,0, btemp+1, pclath, cstack
  2822 ;; Tracked objects:
  2823 ;;		On entry : 0/0
  2824 ;;		On exit  : 0/0
  2825 ;;		Unchanged: 0/0
  2826 ;; Data sizes:     COMMON   BANK0   BANK1
  2827 ;;      Params:         0       8       0
  2828 ;;      Locals:         0      13       0
  2829 ;;      Temps:          0       5       0
  2830 ;;      Totals:         0      26       0
  2831 ;;Total ram usage:       26 bytes
  2832 ;; Hardware stack levels used: 1
  2833 ;; Hardware stack levels required when called: 2
  2834 ;; This function calls:
  2835 ;;		__Umul8_16
  2836 ;; This function is called by:
  2837 ;;		_main
  2838 ;;		_policz_szybkosc
  2839 ;;		_policz_przyspieszenie_styczne
  2840 ;; This function uses a non-reentrant model
  2841 ;;
  2842                           
  2843                           
  2844                           ;psect for function ___flmul
  2845  0012                     ___flmul:
  2846  0012                     l1474:	
  2847                           ;incstack = 0
  2848                           ; Regs used in ___flmul: [wreg+status,2+status,0+btemp+1+pclath+cstack]
  2849                           
  2850  0012  1283               	bcf	3,5	;RP0=0, select bank0
  2851  0013  1303               	bcf	3,6	;RP1=0, select bank0
  2852  0014  082E               	movf	___flmul@b+3,w
  2853  0015  3980               	andlw	128
  2854  0016  00B3               	movwf	??___flmul
  2855  0017  0833               	movf	??___flmul,w
  2856  0018  00B8               	movwf	___flmul@sign
  2857  0019                     l1476:
  2858  0019  082E               	movf	___flmul@b+3,w
  2859  001A  00B3               	movwf	??___flmul
  2860  001B  0733               	addwf	??___flmul,w
  2861  001C  00B4               	movwf	??___flmul+1
  2862  001D  0834               	movf	??___flmul+1,w
  2863  001E  00BE               	movwf	___flmul@bexp
  2864  001F                     l1478:
  2865  001F  1FAD               	btfss	___flmul@b+2,7
  2866  0020  2822               	goto	u2011
  2867  0021  2823               	goto	u2010
  2868  0022                     u2011:
  2869  0022  2824               	goto	l1482
  2870  0023                     u2010:
  2871  0023                     l1480:
  2872  0023  143E               	bsf	___flmul@bexp,0
  2873  0024                     l1482:
  2874  0024  083E               	movf	___flmul@bexp,w
  2875  0025  1903               	btfsc	3,2
  2876  0026  2828               	goto	u2021
  2877  0027  2829               	goto	u2020
  2878  0028                     u2021:
  2879  0028  2838               	goto	l1490
  2880  0029                     u2020:
  2881  0029                     l1484:
  2882  0029  0A3E               	incf	___flmul@bexp,w
  2883  002A  1D03               	btfss	3,2
  2884  002B  282D               	goto	u2031
  2885  002C  282E               	goto	u2030
  2886  002D                     u2031:
  2887  002D  2836               	goto	l1488
  2888  002E                     u2030:
  2889  002E                     l1486:
  2890  002E  3000               	movlw	0
  2891  002F  00AE               	movwf	___flmul@b+3
  2892  0030  3000               	movlw	0
  2893  0031  00AD               	movwf	___flmul@b+2
  2894  0032  3000               	movlw	0
  2895  0033  00AC               	movwf	___flmul@b+1
  2896  0034  3000               	movlw	0
  2897  0035  00AB               	movwf	___flmul@b
  2898  0036                     l1488:
  2899  0036  17AD               	bsf	___flmul@b+2,7
  2900  0037  2840               	goto	l1492
  2901  0038                     l1490:
  2902  0038  3000               	movlw	0
  2903  0039  00AE               	movwf	___flmul@b+3
  2904  003A  3000               	movlw	0
  2905  003B  00AD               	movwf	___flmul@b+2
  2906  003C  3000               	movlw	0
  2907  003D  00AC               	movwf	___flmul@b+1
  2908  003E  3000               	movlw	0
  2909  003F  00AB               	movwf	___flmul@b
  2910  0040                     l1492:
  2911  0040  0832               	movf	___flmul@a+3,w
  2912  0041  3980               	andlw	128
  2913  0042  00B3               	movwf	??___flmul
  2914  0043  0833               	movf	??___flmul,w
  2915  0044  06B8               	xorwf	___flmul@sign,f
  2916  0045                     l1494:
  2917  0045  0832               	movf	___flmul@a+3,w
  2918  0046  00B3               	movwf	??___flmul
  2919  0047  0733               	addwf	??___flmul,w
  2920  0048  00B4               	movwf	??___flmul+1
  2921  0049  0834               	movf	??___flmul+1,w
  2922  004A  00BD               	movwf	___flmul@aexp
  2923  004B                     l1496:
  2924  004B  1FB1               	btfss	___flmul@a+2,7
  2925  004C  284E               	goto	u2041
  2926  004D  284F               	goto	u2040
  2927  004E                     u2041:
  2928  004E  2850               	goto	l1500
  2929  004F                     u2040:
  2930  004F                     l1498:
  2931  004F  143D               	bsf	___flmul@aexp,0
  2932  0050                     l1500:
  2933  0050  083D               	movf	___flmul@aexp,w
  2934  0051  1903               	btfsc	3,2
  2935  0052  2854               	goto	u2051
  2936  0053  2855               	goto	u2050
  2937  0054                     u2051:
  2938  0054  2864               	goto	l1508
  2939  0055                     u2050:
  2940  0055                     l1502:
  2941  0055  0A3D               	incf	___flmul@aexp,w
  2942  0056  1D03               	btfss	3,2
  2943  0057  2859               	goto	u2061
  2944  0058  285A               	goto	u2060
  2945  0059                     u2061:
  2946  0059  2862               	goto	l1506
  2947  005A                     u2060:
  2948  005A                     l1504:
  2949  005A  3000               	movlw	0
  2950  005B  00B2               	movwf	___flmul@a+3
  2951  005C  3000               	movlw	0
  2952  005D  00B1               	movwf	___flmul@a+2
  2953  005E  3000               	movlw	0
  2954  005F  00B0               	movwf	___flmul@a+1
  2955  0060  3000               	movlw	0
  2956  0061  00AF               	movwf	___flmul@a
  2957  0062                     l1506:
  2958  0062  17B1               	bsf	___flmul@a+2,7
  2959  0063  286C               	goto	l1510
  2960  0064                     l1508:
  2961  0064  3000               	movlw	0
  2962  0065  00B2               	movwf	___flmul@a+3
  2963  0066  3000               	movlw	0
  2964  0067  00B1               	movwf	___flmul@a+2
  2965  0068  3000               	movlw	0
  2966  0069  00B0               	movwf	___flmul@a+1
  2967  006A  3000               	movlw	0
  2968  006B  00AF               	movwf	___flmul@a
  2969  006C                     l1510:
  2970  006C  083D               	movf	___flmul@aexp,w
  2971  006D  1903               	btfsc	3,2
  2972  006E  2870               	goto	u2071
  2973  006F  2871               	goto	u2070
  2974  0070                     u2071:
  2975  0070  2876               	goto	l1514
  2976  0071                     u2070:
  2977  0071                     l1512:
  2978  0071  083E               	movf	___flmul@bexp,w
  2979  0072  1D03               	btfss	3,2
  2980  0073  2875               	goto	u2081
  2981  0074  2876               	goto	u2080
  2982  0075                     u2081:
  2983  0075  287F               	goto	l1518
  2984  0076                     u2080:
  2985  0076                     l1514:
  2986  0076  3000               	movlw	0
  2987  0077  00AE               	movwf	?___flmul+3
  2988  0078  3000               	movlw	0
  2989  0079  00AD               	movwf	?___flmul+2
  2990  007A  3000               	movlw	0
  2991  007B  00AC               	movwf	?___flmul+1
  2992  007C  3000               	movlw	0
  2993  007D  00AB               	movwf	?___flmul
  2994  007E  2B60               	goto	l474
  2995  007F                     l1518:
  2996  007F  082B               	movf	___flmul@b,w
  2997  0080  00B3               	movwf	??___flmul
  2998  0081  0833               	movf	??___flmul,w
  2999  0082  00A2               	movwf	__Umul8_16@multiplicand
  3000  0083  0831               	movf	___flmul@a+2,w
  3001  0084  158A  265D  118A   	fcall	__Umul8_16
  3002  0087  1283               	bcf	3,5	;RP0=0, select bank0
  3003  0088  1303               	bcf	3,6	;RP1=0, select bank0
  3004  0089  0823               	movf	?__Umul8_16+1,w
  3005  008A  00C4               	movwf	___flmul@temp+1
  3006  008B  0822               	movf	?__Umul8_16,w
  3007  008C  00C3               	movwf	___flmul@temp
  3008  008D                     l1520:
  3009  008D  0843               	movf	___flmul@temp,w
  3010  008E  00B3               	movwf	??___flmul
  3011  008F  01B4               	clrf	??___flmul+1
  3012  0090  01B5               	clrf	??___flmul+2
  3013  0091  01B6               	clrf	??___flmul+3
  3014  0092  0836               	movf	??___flmul+3,w
  3015  0093  00BC               	movwf	___flmul@grs+3
  3016  0094  0835               	movf	??___flmul+2,w
  3017  0095  00BB               	movwf	___flmul@grs+2
  3018  0096  0834               	movf	??___flmul+1,w
  3019  0097  00BA               	movwf	___flmul@grs+1
  3020  0098  0833               	movf	??___flmul,w
  3021  0099  00B9               	movwf	___flmul@grs
  3022  009A                     l1522:
  3023  009A  0844               	movf	___flmul@temp+1,w
  3024  009B  00B3               	movwf	??___flmul
  3025  009C  01B4               	clrf	??___flmul+1
  3026  009D  01B5               	clrf	??___flmul+2
  3027  009E  01B6               	clrf	??___flmul+3
  3028  009F  0836               	movf	??___flmul+3,w
  3029  00A0  00C2               	movwf	___flmul@prod+3
  3030  00A1  0835               	movf	??___flmul+2,w
  3031  00A2  00C1               	movwf	___flmul@prod+2
  3032  00A3  0834               	movf	??___flmul+1,w
  3033  00A4  00C0               	movwf	___flmul@prod+1
  3034  00A5  0833               	movf	??___flmul,w
  3035  00A6  00BF               	movwf	___flmul@prod
  3036  00A7  082C               	movf	___flmul@b+1,w
  3037  00A8  00B3               	movwf	??___flmul
  3038  00A9  0833               	movf	??___flmul,w
  3039  00AA  00A2               	movwf	__Umul8_16@multiplicand
  3040  00AB  0830               	movf	___flmul@a+1,w
  3041  00AC  158A  265D  118A   	fcall	__Umul8_16
  3042  00AF  1283               	bcf	3,5	;RP0=0, select bank0
  3043  00B0  1303               	bcf	3,6	;RP1=0, select bank0
  3044  00B1  0823               	movf	?__Umul8_16+1,w
  3045  00B2  00C4               	movwf	___flmul@temp+1
  3046  00B3  0822               	movf	?__Umul8_16,w
  3047  00B4  00C3               	movwf	___flmul@temp
  3048  00B5                     l1524:
  3049  00B5  0843               	movf	___flmul@temp,w
  3050  00B6  00B3               	movwf	??___flmul
  3051  00B7  01B4               	clrf	??___flmul+1
  3052  00B8  01B5               	clrf	??___flmul+2
  3053  00B9  01B6               	clrf	??___flmul+3
  3054  00BA  0833               	movf	??___flmul,w
  3055  00BB  07B9               	addwf	___flmul@grs,f
  3056  00BC  0834               	movf	??___flmul+1,w
  3057  00BD  1103               	clrz
  3058  00BE  1803               	skipnc
  3059  00BF  3E01               	addlw	1
  3060  00C0  1903               	skipnz
  3061  00C1  28C3               	goto	u2091
  3062  00C2  07BA               	addwf	___flmul@grs+1,f
  3063  00C3                     u2091:
  3064  00C3  0835               	movf	??___flmul+2,w
  3065  00C4  1103               	clrz
  3066  00C5  1803               	skipnc
  3067  00C6  3E01               	addlw	1
  3068  00C7  1903               	skipnz
  3069  00C8  28CA               	goto	u2092
  3070  00C9  07BB               	addwf	___flmul@grs+2,f
  3071  00CA                     u2092:
  3072  00CA  0836               	movf	??___flmul+3,w
  3073  00CB  1103               	clrz
  3074  00CC  1803               	skipnc
  3075  00CD  3E01               	addlw	1
  3076  00CE  1903               	skipnz
  3077  00CF  28D1               	goto	u2093
  3078  00D0  07BC               	addwf	___flmul@grs+3,f
  3079  00D1                     u2093:
  3080  00D1                     l1526:
  3081  00D1  0844               	movf	___flmul@temp+1,w
  3082  00D2  00B3               	movwf	??___flmul
  3083  00D3  01B4               	clrf	??___flmul+1
  3084  00D4  01B5               	clrf	??___flmul+2
  3085  00D5  01B6               	clrf	??___flmul+3
  3086  00D6  0833               	movf	??___flmul,w
  3087  00D7  07BF               	addwf	___flmul@prod,f
  3088  00D8  0834               	movf	??___flmul+1,w
  3089  00D9  1103               	clrz
  3090  00DA  1803               	skipnc
  3091  00DB  3E01               	addlw	1
  3092  00DC  1903               	skipnz
  3093  00DD  28DF               	goto	u2101
  3094  00DE  07C0               	addwf	___flmul@prod+1,f
  3095  00DF                     u2101:
  3096  00DF  0835               	movf	??___flmul+2,w
  3097  00E0  1103               	clrz
  3098  00E1  1803               	skipnc
  3099  00E2  3E01               	addlw	1
  3100  00E3  1903               	skipnz
  3101  00E4  28E6               	goto	u2102
  3102  00E5  07C1               	addwf	___flmul@prod+2,f
  3103  00E6                     u2102:
  3104  00E6  0836               	movf	??___flmul+3,w
  3105  00E7  1103               	clrz
  3106  00E8  1803               	skipnc
  3107  00E9  3E01               	addlw	1
  3108  00EA  1903               	skipnz
  3109  00EB  28ED               	goto	u2103
  3110  00EC  07C2               	addwf	___flmul@prod+3,f
  3111  00ED                     u2103:
  3112  00ED  082D               	movf	___flmul@b+2,w
  3113  00EE  00B3               	movwf	??___flmul
  3114  00EF  0833               	movf	??___flmul,w
  3115  00F0  00A2               	movwf	__Umul8_16@multiplicand
  3116  00F1  082F               	movf	___flmul@a,w
  3117  00F2  158A  265D  118A   	fcall	__Umul8_16
  3118  00F5  1283               	bcf	3,5	;RP0=0, select bank0
  3119  00F6  1303               	bcf	3,6	;RP1=0, select bank0
  3120  00F7  0823               	movf	?__Umul8_16+1,w
  3121  00F8  00C4               	movwf	___flmul@temp+1
  3122  00F9  0822               	movf	?__Umul8_16,w
  3123  00FA  00C3               	movwf	___flmul@temp
  3124  00FB                     l1528:
  3125  00FB  0843               	movf	___flmul@temp,w
  3126  00FC  00B3               	movwf	??___flmul
  3127  00FD  01B4               	clrf	??___flmul+1
  3128  00FE  01B5               	clrf	??___flmul+2
  3129  00FF  01B6               	clrf	??___flmul+3
  3130  0100  0833               	movf	??___flmul,w
  3131  0101  07B9               	addwf	___flmul@grs,f
  3132  0102  0834               	movf	??___flmul+1,w
  3133  0103  1103               	clrz
  3134  0104  1803               	skipnc
  3135  0105  3E01               	addlw	1
  3136  0106  1903               	skipnz
  3137  0107  2909               	goto	u2111
  3138  0108  07BA               	addwf	___flmul@grs+1,f
  3139  0109                     u2111:
  3140  0109  0835               	movf	??___flmul+2,w
  3141  010A  1103               	clrz
  3142  010B  1803               	skipnc
  3143  010C  3E01               	addlw	1
  3144  010D  1903               	skipnz
  3145  010E  2910               	goto	u2112
  3146  010F  07BB               	addwf	___flmul@grs+2,f
  3147  0110                     u2112:
  3148  0110  0836               	movf	??___flmul+3,w
  3149  0111  1103               	clrz
  3150  0112  1803               	skipnc
  3151  0113  3E01               	addlw	1
  3152  0114  1903               	skipnz
  3153  0115  2917               	goto	u2113
  3154  0116  07BC               	addwf	___flmul@grs+3,f
  3155  0117                     u2113:
  3156  0117                     l1530:
  3157  0117  0844               	movf	___flmul@temp+1,w
  3158  0118  00B3               	movwf	??___flmul
  3159  0119  01B4               	clrf	??___flmul+1
  3160  011A  01B5               	clrf	??___flmul+2
  3161  011B  01B6               	clrf	??___flmul+3
  3162  011C  0833               	movf	??___flmul,w
  3163  011D  07BF               	addwf	___flmul@prod,f
  3164  011E  0834               	movf	??___flmul+1,w
  3165  011F  1103               	clrz
  3166  0120  1803               	skipnc
  3167  0121  3E01               	addlw	1
  3168  0122  1903               	skipnz
  3169  0123  2925               	goto	u2121
  3170  0124  07C0               	addwf	___flmul@prod+1,f
  3171  0125                     u2121:
  3172  0125  0835               	movf	??___flmul+2,w
  3173  0126  1103               	clrz
  3174  0127  1803               	skipnc
  3175  0128  3E01               	addlw	1
  3176  0129  1903               	skipnz
  3177  012A  292C               	goto	u2122
  3178  012B  07C1               	addwf	___flmul@prod+2,f
  3179  012C                     u2122:
  3180  012C  0836               	movf	??___flmul+3,w
  3181  012D  1103               	clrz
  3182  012E  1803               	skipnc
  3183  012F  3E01               	addlw	1
  3184  0130  1903               	skipnz
  3185  0131  2933               	goto	u2123
  3186  0132  07C2               	addwf	___flmul@prod+3,f
  3187  0133                     u2123:
  3188  0133                     l1532:
  3189  0133  3008               	movlw	8
  3190  0134  00B3               	movwf	??___flmul
  3191  0135                     u2135:
  3192  0135  1003               	clrc
  3193  0136  0DB9               	rlf	___flmul@grs,f
  3194  0137  0DBA               	rlf	___flmul@grs+1,f
  3195  0138  0DBB               	rlf	___flmul@grs+2,f
  3196  0139  0DBC               	rlf	___flmul@grs+3,f
  3197  013A  0BB3               	decfsz	??___flmul,f
  3198  013B  2935               	goto	u2135
  3199  013C                     l1534:
  3200  013C  082C               	movf	___flmul@b+1,w
  3201  013D  00B3               	movwf	??___flmul
  3202  013E  0833               	movf	??___flmul,w
  3203  013F  00A2               	movwf	__Umul8_16@multiplicand
  3204  0140  082F               	movf	___flmul@a,w
  3205  0141  158A  265D  118A   	fcall	__Umul8_16
  3206  0144  1283               	bcf	3,5	;RP0=0, select bank0
  3207  0145  1303               	bcf	3,6	;RP1=0, select bank0
  3208  0146  0823               	movf	?__Umul8_16+1,w
  3209  0147  00C4               	movwf	___flmul@temp+1
  3210  0148  0822               	movf	?__Umul8_16,w
  3211  0149  00C3               	movwf	___flmul@temp
  3212  014A                     l1536:
  3213  014A  0843               	movf	___flmul@temp,w
  3214  014B  00B3               	movwf	??___flmul
  3215  014C  0844               	movf	___flmul@temp+1,w
  3216  014D  00B4               	movwf	??___flmul+1
  3217  014E  01B5               	clrf	??___flmul+2
  3218  014F  01B6               	clrf	??___flmul+3
  3219  0150  0833               	movf	??___flmul,w
  3220  0151  07B9               	addwf	___flmul@grs,f
  3221  0152  0834               	movf	??___flmul+1,w
  3222  0153  1103               	clrz
  3223  0154  1803               	skipnc
  3224  0155  3E01               	addlw	1
  3225  0156  1903               	skipnz
  3226  0157  2959               	goto	u2141
  3227  0158  07BA               	addwf	___flmul@grs+1,f
  3228  0159                     u2141:
  3229  0159  0835               	movf	??___flmul+2,w
  3230  015A  1103               	clrz
  3231  015B  1803               	skipnc
  3232  015C  3E01               	addlw	1
  3233  015D  1903               	skipnz
  3234  015E  2960               	goto	u2142
  3235  015F  07BB               	addwf	___flmul@grs+2,f
  3236  0160                     u2142:
  3237  0160  0836               	movf	??___flmul+3,w
  3238  0161  1103               	clrz
  3239  0162  1803               	skipnc
  3240  0163  3E01               	addlw	1
  3241  0164  1903               	skipnz
  3242  0165  2967               	goto	u2143
  3243  0166  07BC               	addwf	___flmul@grs+3,f
  3244  0167                     u2143:
  3245  0167                     l1538:
  3246  0167  082B               	movf	___flmul@b,w
  3247  0168  00B3               	movwf	??___flmul
  3248  0169  0833               	movf	??___flmul,w
  3249  016A  00A2               	movwf	__Umul8_16@multiplicand
  3250  016B  0830               	movf	___flmul@a+1,w
  3251  016C  158A  265D  118A   	fcall	__Umul8_16
  3252  016F  1283               	bcf	3,5	;RP0=0, select bank0
  3253  0170  1303               	bcf	3,6	;RP1=0, select bank0
  3254  0171  0823               	movf	?__Umul8_16+1,w
  3255  0172  00C4               	movwf	___flmul@temp+1
  3256  0173  0822               	movf	?__Umul8_16,w
  3257  0174  00C3               	movwf	___flmul@temp
  3258  0175                     l1540:
  3259  0175  0843               	movf	___flmul@temp,w
  3260  0176  00B3               	movwf	??___flmul
  3261  0177  0844               	movf	___flmul@temp+1,w
  3262  0178  00B4               	movwf	??___flmul+1
  3263  0179  01B5               	clrf	??___flmul+2
  3264  017A  01B6               	clrf	??___flmul+3
  3265  017B  0833               	movf	??___flmul,w
  3266  017C  07B9               	addwf	___flmul@grs,f
  3267  017D  0834               	movf	??___flmul+1,w
  3268  017E  1103               	clrz
  3269  017F  1803               	skipnc
  3270  0180  3E01               	addlw	1
  3271  0181  1903               	skipnz
  3272  0182  2984               	goto	u2151
  3273  0183  07BA               	addwf	___flmul@grs+1,f
  3274  0184                     u2151:
  3275  0184  0835               	movf	??___flmul+2,w
  3276  0185  1103               	clrz
  3277  0186  1803               	skipnc
  3278  0187  3E01               	addlw	1
  3279  0188  1903               	skipnz
  3280  0189  298B               	goto	u2152
  3281  018A  07BB               	addwf	___flmul@grs+2,f
  3282  018B                     u2152:
  3283  018B  0836               	movf	??___flmul+3,w
  3284  018C  1103               	clrz
  3285  018D  1803               	skipnc
  3286  018E  3E01               	addlw	1
  3287  018F  1903               	skipnz
  3288  0190  2992               	goto	u2153
  3289  0191  07BC               	addwf	___flmul@grs+3,f
  3290  0192                     u2153:
  3291  0192                     l1542:
  3292  0192  3008               	movlw	8
  3293  0193  00B3               	movwf	??___flmul
  3294  0194                     u2165:
  3295  0194  1003               	clrc
  3296  0195  0DB9               	rlf	___flmul@grs,f
  3297  0196  0DBA               	rlf	___flmul@grs+1,f
  3298  0197  0DBB               	rlf	___flmul@grs+2,f
  3299  0198  0DBC               	rlf	___flmul@grs+3,f
  3300  0199  0BB3               	decfsz	??___flmul,f
  3301  019A  2994               	goto	u2165
  3302  019B  082B               	movf	___flmul@b,w
  3303  019C  00B3               	movwf	??___flmul
  3304  019D  0833               	movf	??___flmul,w
  3305  019E  00A2               	movwf	__Umul8_16@multiplicand
  3306  019F  082F               	movf	___flmul@a,w
  3307  01A0  158A  265D  118A   	fcall	__Umul8_16
  3308  01A3  1283               	bcf	3,5	;RP0=0, select bank0
  3309  01A4  1303               	bcf	3,6	;RP1=0, select bank0
  3310  01A5  0823               	movf	?__Umul8_16+1,w
  3311  01A6  00C4               	movwf	___flmul@temp+1
  3312  01A7  0822               	movf	?__Umul8_16,w
  3313  01A8  00C3               	movwf	___flmul@temp
  3314  01A9                     l1544:
  3315  01A9  0843               	movf	___flmul@temp,w
  3316  01AA  00B3               	movwf	??___flmul
  3317  01AB  0844               	movf	___flmul@temp+1,w
  3318  01AC  00B4               	movwf	??___flmul+1
  3319  01AD  01B5               	clrf	??___flmul+2
  3320  01AE  01B6               	clrf	??___flmul+3
  3321  01AF  0833               	movf	??___flmul,w
  3322  01B0  07B9               	addwf	___flmul@grs,f
  3323  01B1  0834               	movf	??___flmul+1,w
  3324  01B2  1103               	clrz
  3325  01B3  1803               	skipnc
  3326  01B4  3E01               	addlw	1
  3327  01B5  1903               	skipnz
  3328  01B6  29B8               	goto	u2171
  3329  01B7  07BA               	addwf	___flmul@grs+1,f
  3330  01B8                     u2171:
  3331  01B8  0835               	movf	??___flmul+2,w
  3332  01B9  1103               	clrz
  3333  01BA  1803               	skipnc
  3334  01BB  3E01               	addlw	1
  3335  01BC  1903               	skipnz
  3336  01BD  29BF               	goto	u2172
  3337  01BE  07BB               	addwf	___flmul@grs+2,f
  3338  01BF                     u2172:
  3339  01BF  0836               	movf	??___flmul+3,w
  3340  01C0  1103               	clrz
  3341  01C1  1803               	skipnc
  3342  01C2  3E01               	addlw	1
  3343  01C3  1903               	skipnz
  3344  01C4  29C6               	goto	u2173
  3345  01C5  07BC               	addwf	___flmul@grs+3,f
  3346  01C6                     u2173:
  3347  01C6                     l1546:
  3348  01C6  082C               	movf	___flmul@b+1,w
  3349  01C7  00B3               	movwf	??___flmul
  3350  01C8  0833               	movf	??___flmul,w
  3351  01C9  00A2               	movwf	__Umul8_16@multiplicand
  3352  01CA  0831               	movf	___flmul@a+2,w
  3353  01CB  158A  265D  118A   	fcall	__Umul8_16
  3354  01CE  1283               	bcf	3,5	;RP0=0, select bank0
  3355  01CF  1303               	bcf	3,6	;RP1=0, select bank0
  3356  01D0  0823               	movf	?__Umul8_16+1,w
  3357  01D1  00C4               	movwf	___flmul@temp+1
  3358  01D2  0822               	movf	?__Umul8_16,w
  3359  01D3  00C3               	movwf	___flmul@temp
  3360  01D4  0843               	movf	___flmul@temp,w
  3361  01D5  00B3               	movwf	??___flmul
  3362  01D6  0844               	movf	___flmul@temp+1,w
  3363  01D7  00B4               	movwf	??___flmul+1
  3364  01D8  01B5               	clrf	??___flmul+2
  3365  01D9  01B6               	clrf	??___flmul+3
  3366  01DA  0833               	movf	??___flmul,w
  3367  01DB  07BF               	addwf	___flmul@prod,f
  3368  01DC  0834               	movf	??___flmul+1,w
  3369  01DD  1103               	clrz
  3370  01DE  1803               	skipnc
  3371  01DF  3E01               	addlw	1
  3372  01E0  1903               	skipnz
  3373  01E1  29E3               	goto	u2181
  3374  01E2  07C0               	addwf	___flmul@prod+1,f
  3375  01E3                     u2181:
  3376  01E3  0835               	movf	??___flmul+2,w
  3377  01E4  1103               	clrz
  3378  01E5  1803               	skipnc
  3379  01E6  3E01               	addlw	1
  3380  01E7  1903               	skipnz
  3381  01E8  29EA               	goto	u2182
  3382  01E9  07C1               	addwf	___flmul@prod+2,f
  3383  01EA                     u2182:
  3384  01EA  0836               	movf	??___flmul+3,w
  3385  01EB  1103               	clrz
  3386  01EC  1803               	skipnc
  3387  01ED  3E01               	addlw	1
  3388  01EE  1903               	skipnz
  3389  01EF  29F1               	goto	u2183
  3390  01F0  07C2               	addwf	___flmul@prod+3,f
  3391  01F1                     u2183:
  3392  01F1                     l1548:
  3393  01F1  082D               	movf	___flmul@b+2,w
  3394  01F2  00B3               	movwf	??___flmul
  3395  01F3  0833               	movf	??___flmul,w
  3396  01F4  00A2               	movwf	__Umul8_16@multiplicand
  3397  01F5  0830               	movf	___flmul@a+1,w
  3398  01F6  158A  265D  118A   	fcall	__Umul8_16
  3399  01F9  1283               	bcf	3,5	;RP0=0, select bank0
  3400  01FA  1303               	bcf	3,6	;RP1=0, select bank0
  3401  01FB  0823               	movf	?__Umul8_16+1,w
  3402  01FC  00C4               	movwf	___flmul@temp+1
  3403  01FD  0822               	movf	?__Umul8_16,w
  3404  01FE  00C3               	movwf	___flmul@temp
  3405  01FF                     l1550:
  3406  01FF  0843               	movf	___flmul@temp,w
  3407  0200  00B3               	movwf	??___flmul
  3408  0201  0844               	movf	___flmul@temp+1,w
  3409  0202  00B4               	movwf	??___flmul+1
  3410  0203  01B5               	clrf	??___flmul+2
  3411  0204  01B6               	clrf	??___flmul+3
  3412  0205  0833               	movf	??___flmul,w
  3413  0206  07BF               	addwf	___flmul@prod,f
  3414  0207  0834               	movf	??___flmul+1,w
  3415  0208  1103               	clrz
  3416  0209  1803               	skipnc
  3417  020A  3E01               	addlw	1
  3418  020B  1903               	skipnz
  3419  020C  2A0E               	goto	u2191
  3420  020D  07C0               	addwf	___flmul@prod+1,f
  3421  020E                     u2191:
  3422  020E  0835               	movf	??___flmul+2,w
  3423  020F  1103               	clrz
  3424  0210  1803               	skipnc
  3425  0211  3E01               	addlw	1
  3426  0212  1903               	skipnz
  3427  0213  2A15               	goto	u2192
  3428  0214  07C1               	addwf	___flmul@prod+2,f
  3429  0215                     u2192:
  3430  0215  0836               	movf	??___flmul+3,w
  3431  0216  1103               	clrz
  3432  0217  1803               	skipnc
  3433  0218  3E01               	addlw	1
  3434  0219  1903               	skipnz
  3435  021A  2A1C               	goto	u2193
  3436  021B  07C2               	addwf	___flmul@prod+3,f
  3437  021C                     u2193:
  3438  021C  082D               	movf	___flmul@b+2,w
  3439  021D  00B3               	movwf	??___flmul
  3440  021E  0833               	movf	??___flmul,w
  3441  021F  00A2               	movwf	__Umul8_16@multiplicand
  3442  0220  0831               	movf	___flmul@a+2,w
  3443  0221  158A  265D  118A   	fcall	__Umul8_16
  3444  0224  1283               	bcf	3,5	;RP0=0, select bank0
  3445  0225  1303               	bcf	3,6	;RP1=0, select bank0
  3446  0226  0823               	movf	?__Umul8_16+1,w
  3447  0227  00C4               	movwf	___flmul@temp+1
  3448  0228  0822               	movf	?__Umul8_16,w
  3449  0229  00C3               	movwf	___flmul@temp
  3450  022A                     l1552:
  3451  022A  0843               	movf	___flmul@temp,w
  3452  022B  00B3               	movwf	??___flmul
  3453  022C  0844               	movf	___flmul@temp+1,w
  3454  022D  00B4               	movwf	??___flmul+1
  3455  022E  01B5               	clrf	??___flmul+2
  3456  022F  01B6               	clrf	??___flmul+3
  3457  0230  3008               	movlw	8
  3458  0231                     u2205:
  3459  0231  1003               	clrc
  3460  0232  0DB3               	rlf	??___flmul,f
  3461  0233  0DB4               	rlf	??___flmul+1,f
  3462  0234  0DB5               	rlf	??___flmul+2,f
  3463  0235  0DB6               	rlf	??___flmul+3,f
  3464  0236                     u2200:
  3465  0236  3EFF               	addlw	-1
  3466  0237  1D03               	skipz
  3467  0238  2A31               	goto	u2205
  3468  0239  0833               	movf	??___flmul,w
  3469  023A  07BF               	addwf	___flmul@prod,f
  3470  023B  0834               	movf	??___flmul+1,w
  3471  023C  1103               	clrz
  3472  023D  1803               	skipnc
  3473  023E  3E01               	addlw	1
  3474  023F  1903               	skipnz
  3475  0240  2A42               	goto	u2211
  3476  0241  07C0               	addwf	___flmul@prod+1,f
  3477  0242                     u2211:
  3478  0242  0835               	movf	??___flmul+2,w
  3479  0243  1103               	clrz
  3480  0244  1803               	skipnc
  3481  0245  3E01               	addlw	1
  3482  0246  1903               	skipnz
  3483  0247  2A49               	goto	u2212
  3484  0248  07C1               	addwf	___flmul@prod+2,f
  3485  0249                     u2212:
  3486  0249  0836               	movf	??___flmul+3,w
  3487  024A  1103               	clrz
  3488  024B  1803               	skipnc
  3489  024C  3E01               	addlw	1
  3490  024D  1903               	skipnz
  3491  024E  2A50               	goto	u2213
  3492  024F  07C2               	addwf	___flmul@prod+3,f
  3493  0250                     u2213:
  3494  0250                     l1554:
  3495  0250  0839               	movf	___flmul@grs,w
  3496  0251  00B3               	movwf	??___flmul
  3497  0252  083A               	movf	___flmul@grs+1,w
  3498  0253  00B4               	movwf	??___flmul+1
  3499  0254  083B               	movf	___flmul@grs+2,w
  3500  0255  00B5               	movwf	??___flmul+2
  3501  0256  083C               	movf	___flmul@grs+3,w
  3502  0257  00B6               	movwf	??___flmul+3
  3503  0258  3018               	movlw	24
  3504  0259                     u2225:
  3505  0259  1003               	clrc
  3506  025A  0CB6               	rrf	??___flmul+3,f
  3507  025B  0CB5               	rrf	??___flmul+2,f
  3508  025C  0CB4               	rrf	??___flmul+1,f
  3509  025D  0CB3               	rrf	??___flmul,f
  3510  025E                     u2220:
  3511  025E  3EFF               	addlw	-1
  3512  025F  1D03               	skipz
  3513  0260  2A59               	goto	u2225
  3514  0261  0833               	movf	??___flmul,w
  3515  0262  07BF               	addwf	___flmul@prod,f
  3516  0263  0834               	movf	??___flmul+1,w
  3517  0264  1103               	clrz
  3518  0265  1803               	skipnc
  3519  0266  3E01               	addlw	1
  3520  0267  1903               	skipnz
  3521  0268  2A6A               	goto	u2231
  3522  0269  07C0               	addwf	___flmul@prod+1,f
  3523  026A                     u2231:
  3524  026A  0835               	movf	??___flmul+2,w
  3525  026B  1103               	clrz
  3526  026C  1803               	skipnc
  3527  026D  3E01               	addlw	1
  3528  026E  1903               	skipnz
  3529  026F  2A71               	goto	u2232
  3530  0270  07C1               	addwf	___flmul@prod+2,f
  3531  0271                     u2232:
  3532  0271  0836               	movf	??___flmul+3,w
  3533  0272  1103               	clrz
  3534  0273  1803               	skipnc
  3535  0274  3E01               	addlw	1
  3536  0275  1903               	skipnz
  3537  0276  2A78               	goto	u2233
  3538  0277  07C2               	addwf	___flmul@prod+3,f
  3539  0278                     u2233:
  3540  0278                     l1556:
  3541  0278  3008               	movlw	8
  3542  0279  00B3               	movwf	??___flmul
  3543  027A                     u2245:
  3544  027A  1003               	clrc
  3545  027B  0DB9               	rlf	___flmul@grs,f
  3546  027C  0DBA               	rlf	___flmul@grs+1,f
  3547  027D  0DBB               	rlf	___flmul@grs+2,f
  3548  027E  0DBC               	rlf	___flmul@grs+3,f
  3549  027F  0BB3               	decfsz	??___flmul,f
  3550  0280  2A7A               	goto	u2245
  3551  0281                     l1558:
  3552  0281  083E               	movf	___flmul@bexp,w
  3553  0282  073D               	addwf	___flmul@aexp,w
  3554  0283  00B3               	movwf	??___flmul
  3555  0284  01B4               	clrf	??___flmul+1
  3556  0285  0DB4               	rlf	??___flmul+1,f
  3557  0286  0833               	movf	??___flmul,w
  3558  0287  3E82               	addlw	130
  3559  0288  00C3               	movwf	___flmul@temp
  3560  0289  0834               	movf	??___flmul+1,w
  3561  028A  1803               	skipnc
  3562  028B  3E01               	addlw	1
  3563  028C  3EFF               	addlw	255
  3564  028D  00C4               	movwf	___flmul@temp+1
  3565  028E  2AAC               	goto	l1570
  3566  028F                     l1560:
  3567  028F  3001               	movlw	1
  3568  0290  00B3               	movwf	??___flmul
  3569  0291                     u2255:
  3570  0291  1003               	clrc
  3571  0292  0DBF               	rlf	___flmul@prod,f
  3572  0293  0DC0               	rlf	___flmul@prod+1,f
  3573  0294  0DC1               	rlf	___flmul@prod+2,f
  3574  0295  0DC2               	rlf	___flmul@prod+3,f
  3575  0296  0BB3               	decfsz	??___flmul,f
  3576  0297  2A91               	goto	u2255
  3577  0298                     l1562:
  3578  0298  1FBC               	btfss	___flmul@grs+3,7
  3579  0299  2A9B               	goto	u2261
  3580  029A  2A9C               	goto	u2260
  3581  029B                     u2261:
  3582  029B  2A9D               	goto	l1566
  3583  029C                     u2260:
  3584  029C                     l1564:
  3585  029C  143F               	bsf	___flmul@prod,0
  3586  029D                     l1566:
  3587  029D  3001               	movlw	1
  3588  029E  00B3               	movwf	??___flmul
  3589  029F                     u2275:
  3590  029F  1003               	clrc
  3591  02A0  0DB9               	rlf	___flmul@grs,f
  3592  02A1  0DBA               	rlf	___flmul@grs+1,f
  3593  02A2  0DBB               	rlf	___flmul@grs+2,f
  3594  02A3  0DBC               	rlf	___flmul@grs+3,f
  3595  02A4  0BB3               	decfsz	??___flmul,f
  3596  02A5  2A9F               	goto	u2275
  3597  02A6                     l1568:
  3598  02A6  30FF               	movlw	255
  3599  02A7  07C3               	addwf	___flmul@temp,f
  3600  02A8  1803               	skipnc
  3601  02A9  0AC4               	incf	___flmul@temp+1,f
  3602  02AA  30FF               	movlw	255
  3603  02AB  07C4               	addwf	___flmul@temp+1,f
  3604  02AC                     l1570:
  3605  02AC  1FC1               	btfss	___flmul@prod+2,7
  3606  02AD  2AAF               	goto	u2281
  3607  02AE  2AB0               	goto	u2280
  3608  02AF                     u2281:
  3609  02AF  2A8F               	goto	l1560
  3610  02B0                     u2280:
  3611  02B0                     l1572:
  3612  02B0  01BD               	clrf	___flmul@aexp
  3613  02B1                     l1574:
  3614  02B1  1FBC               	btfss	___flmul@grs+3,7
  3615  02B2  2AB4               	goto	u2291
  3616  02B3  2AB5               	goto	u2290
  3617  02B4                     u2291:
  3618  02B4  2AD1               	goto	l1582
  3619  02B5                     u2290:
  3620  02B5                     l1576:
  3621  02B5  30FF               	movlw	255
  3622  02B6  0539               	andwf	___flmul@grs,w
  3623  02B7  00B3               	movwf	??___flmul
  3624  02B8  30FF               	movlw	255
  3625  02B9  053A               	andwf	___flmul@grs+1,w
  3626  02BA  00B4               	movwf	??___flmul+1
  3627  02BB  30FF               	movlw	255
  3628  02BC  053B               	andwf	___flmul@grs+2,w
  3629  02BD  00B5               	movwf	??___flmul+2
  3630  02BE  307F               	movlw	127
  3631  02BF  053C               	andwf	___flmul@grs+3,w
  3632  02C0  00B6               	movwf	??___flmul+3
  3633  02C1  0836               	movf	??___flmul+3,w
  3634  02C2  0435               	iorwf	??___flmul+2,w
  3635  02C3  0434               	iorwf	??___flmul+1,w
  3636  02C4  0433               	iorwf	??___flmul,w
  3637  02C5  1903               	skipnz
  3638  02C6  2AC8               	goto	u2301
  3639  02C7  2AC9               	goto	u2300
  3640  02C8                     u2301:
  3641  02C8  2ACC               	goto	l480
  3642  02C9                     u2300:
  3643  02C9                     l1578:
  3644  02C9  01BD               	clrf	___flmul@aexp
  3645  02CA  0ABD               	incf	___flmul@aexp,f
  3646  02CB  2AD1               	goto	l1582
  3647  02CC                     l480:
  3648  02CC  1C3F               	btfss	___flmul@prod,0
  3649  02CD  2ACF               	goto	u2311
  3650  02CE  2AD0               	goto	u2310
  3651  02CF                     u2311:
  3652  02CF  2AD1               	goto	l1582
  3653  02D0                     u2310:
  3654  02D0  2AC9               	goto	l1578
  3655  02D1                     l1582:
  3656  02D1  083D               	movf	___flmul@aexp,w
  3657  02D2  1903               	btfsc	3,2
  3658  02D3  2AD5               	goto	u2321
  3659  02D4  2AD6               	goto	u2320
  3660  02D5                     u2321:
  3661  02D5  2B07               	goto	l1592
  3662  02D6                     u2320:
  3663  02D6                     l1584:
  3664  02D6  3001               	movlw	1
  3665  02D7  07BF               	addwf	___flmul@prod,f
  3666  02D8  3000               	movlw	0
  3667  02D9  1803               	skipnc
  3668  02DA  3001               	movlw	1
  3669  02DB  07C0               	addwf	___flmul@prod+1,f
  3670  02DC  3000               	movlw	0
  3671  02DD  1803               	skipnc
  3672  02DE  3001               	movlw	1
  3673  02DF  07C1               	addwf	___flmul@prod+2,f
  3674  02E0  3000               	movlw	0
  3675  02E1  1803               	skipnc
  3676  02E2  3001               	movlw	1
  3677  02E3  07C2               	addwf	___flmul@prod+3,f
  3678  02E4                     l1586:
  3679  02E4  1C42               	btfss	___flmul@prod+3,0
  3680  02E5  2AE7               	goto	u2331
  3681  02E6  2AE8               	goto	u2330
  3682  02E7                     u2331:
  3683  02E7  2B07               	goto	l1592
  3684  02E8                     u2330:
  3685  02E8                     l1588:
  3686  02E8  083F               	movf	___flmul@prod,w
  3687  02E9  00B3               	movwf	??___flmul
  3688  02EA  0840               	movf	___flmul@prod+1,w
  3689  02EB  00B4               	movwf	??___flmul+1
  3690  02EC  0841               	movf	___flmul@prod+2,w
  3691  02ED  00B5               	movwf	??___flmul+2
  3692  02EE  0842               	movf	___flmul@prod+3,w
  3693  02EF  00B6               	movwf	??___flmul+3
  3694  02F0  3001               	movlw	1
  3695  02F1  00B7               	movwf	??___flmul+4
  3696  02F2                     u2345:
  3697  02F2  0D36               	rlf	??___flmul+3,w
  3698  02F3  0CB6               	rrf	??___flmul+3,f
  3699  02F4  0CB5               	rrf	??___flmul+2,f
  3700  02F5  0CB4               	rrf	??___flmul+1,f
  3701  02F6  0CB3               	rrf	??___flmul,f
  3702  02F7                     u2340:
  3703  02F7  0BB7               	decfsz	??___flmul+4,f
  3704  02F8  2AF2               	goto	u2345
  3705  02F9  0836               	movf	??___flmul+3,w
  3706  02FA  00C2               	movwf	___flmul@prod+3
  3707  02FB  0835               	movf	??___flmul+2,w
  3708  02FC  00C1               	movwf	___flmul@prod+2
  3709  02FD  0834               	movf	??___flmul+1,w
  3710  02FE  00C0               	movwf	___flmul@prod+1
  3711  02FF  0833               	movf	??___flmul,w
  3712  0300  00BF               	movwf	___flmul@prod
  3713  0301                     l1590:
  3714  0301  3001               	movlw	1
  3715  0302  07C3               	addwf	___flmul@temp,f
  3716  0303  1803               	skipnc
  3717  0304  0AC4               	incf	___flmul@temp+1,f
  3718  0305  3000               	movlw	0
  3719  0306  07C4               	addwf	___flmul@temp+1,f
  3720  0307                     l1592:
  3721  0307  0844               	movf	___flmul@temp+1,w
  3722  0308  3A80               	xorlw	128
  3723  0309  00FF               	movwf	btemp+1
  3724  030A  3080               	movlw	128
  3725  030B  027F               	subwf	btemp+1,w
  3726  030C  1D03               	skipz
  3727  030D  2B10               	goto	u2355
  3728  030E  30FF               	movlw	255
  3729  030F  0243               	subwf	___flmul@temp,w
  3730  0310                     u2355:
  3731  0310  1C03               	skipc
  3732  0311  2B13               	goto	u2351
  3733  0312  2B14               	goto	u2350
  3734  0313                     u2351:
  3735  0313  2B1F               	goto	l1596
  3736  0314                     u2350:
  3737  0314                     l1594:
  3738  0314  307F               	movlw	127
  3739  0315  1283               	bcf	3,5	;RP0=0, select bank0
  3740  0316  1303               	bcf	3,6	;RP1=0, select bank0
  3741  0317  00C2               	movwf	___flmul@prod+3
  3742  0318  3080               	movlw	128
  3743  0319  00C1               	movwf	___flmul@prod+2
  3744  031A  3000               	movlw	0
  3745  031B  00C0               	movwf	___flmul@prod+1
  3746  031C  3000               	movlw	0
  3747  031D  00BF               	movwf	___flmul@prod
  3748  031E  2B54               	goto	l486
  3749  031F                     l1596:
  3750  031F  1283               	bcf	3,5	;RP0=0, select bank0
  3751  0320  1303               	bcf	3,6	;RP1=0, select bank0
  3752  0321  0844               	movf	___flmul@temp+1,w
  3753  0322  3A80               	xorlw	128
  3754  0323  00FF               	movwf	btemp+1
  3755  0324  3080               	movlw	128
  3756  0325  027F               	subwf	btemp+1,w
  3757  0326  1D03               	skipz
  3758  0327  2B2A               	goto	u2365
  3759  0328  3001               	movlw	1
  3760  0329  0243               	subwf	___flmul@temp,w
  3761  032A                     u2365:
  3762  032A  1803               	skipnc
  3763  032B  2B2D               	goto	u2361
  3764  032C  2B2E               	goto	u2360
  3765  032D                     u2361:
  3766  032D  2B3A               	goto	l1602
  3767  032E                     u2360:
  3768  032E                     l1598:
  3769  032E  3000               	movlw	0
  3770  032F  1283               	bcf	3,5	;RP0=0, select bank0
  3771  0330  1303               	bcf	3,6	;RP1=0, select bank0
  3772  0331  00C2               	movwf	___flmul@prod+3
  3773  0332  3000               	movlw	0
  3774  0333  00C1               	movwf	___flmul@prod+2
  3775  0334  3000               	movlw	0
  3776  0335  00C0               	movwf	___flmul@prod+1
  3777  0336  3000               	movlw	0
  3778  0337  00BF               	movwf	___flmul@prod
  3779  0338                     l1600:
  3780  0338  01B8               	clrf	___flmul@sign
  3781  0339  2B54               	goto	l486
  3782  033A                     l1602:
  3783  033A  1283               	bcf	3,5	;RP0=0, select bank0
  3784  033B  1303               	bcf	3,6	;RP1=0, select bank0
  3785  033C  0843               	movf	___flmul@temp,w
  3786  033D  00B3               	movwf	??___flmul
  3787  033E  0833               	movf	??___flmul,w
  3788  033F  00BE               	movwf	___flmul@bexp
  3789  0340  30FF               	movlw	255
  3790  0341  05BF               	andwf	___flmul@prod,f
  3791  0342  30FF               	movlw	255
  3792  0343  05C0               	andwf	___flmul@prod+1,f
  3793  0344  307F               	movlw	127
  3794  0345  05C1               	andwf	___flmul@prod+2,f
  3795  0346  3000               	movlw	0
  3796  0347  05C2               	andwf	___flmul@prod+3,f
  3797  0348                     l1604:
  3798  0348  1C3E               	btfss	___flmul@bexp,0
  3799  0349  2B4B               	goto	u2371
  3800  034A  2B4C               	goto	u2370
  3801  034B                     u2371:
  3802  034B  2B4D               	goto	l1608
  3803  034C                     u2370:
  3804  034C                     l1606:
  3805  034C  17C1               	bsf	___flmul@prod+2,7
  3806  034D                     l1608:
  3807  034D  083E               	movf	___flmul@bexp,w
  3808  034E  00B3               	movwf	??___flmul
  3809  034F  1003               	clrc
  3810  0350  0C33               	rrf	??___flmul,w
  3811  0351  00B4               	movwf	??___flmul+1
  3812  0352  0834               	movf	??___flmul+1,w
  3813  0353  00C2               	movwf	___flmul@prod+3
  3814  0354                     l486:
  3815  0354  0838               	movf	___flmul@sign,w
  3816  0355  00B3               	movwf	??___flmul
  3817  0356  0833               	movf	??___flmul,w
  3818  0357  04C2               	iorwf	___flmul@prod+3,f
  3819  0358                     l1610:
  3820  0358  0842               	movf	___flmul@prod+3,w
  3821  0359  00AE               	movwf	?___flmul+3
  3822  035A  0841               	movf	___flmul@prod+2,w
  3823  035B  00AD               	movwf	?___flmul+2
  3824  035C  0840               	movf	___flmul@prod+1,w
  3825  035D  00AC               	movwf	?___flmul+1
  3826  035E  083F               	movf	___flmul@prod,w
  3827  035F  00AB               	movwf	?___flmul
  3828  0360                     l474:
  3829  0360  0008               	return
  3830  0361                     __end_of___flmul:
  3831                           
  3832                           	psect	text9
  3833  0E5D                     __ptext9:	
  3834 ;; *************** function __Umul8_16 *****************
  3835 ;; Defined at:
  3836 ;;		line 4 in file "C:\Program Files\Microchip\xc8\v2.32\pic\sources\c90\common\Umul8_16.c"
  3837 ;; Parameters:    Size  Location     Type
  3838 ;;  multiplier      1    wreg     unsigned char 
  3839 ;;  multiplicand    1    2[BANK0 ] unsigned char 
  3840 ;; Auto vars:     Size  Location     Type
  3841 ;;  multiplier      1   10[BANK0 ] unsigned char 
  3842 ;;  word_mpld       2    8[BANK0 ] unsigned int 
  3843 ;;  product         2    6[BANK0 ] unsigned int 
  3844 ;; Return value:  Size  Location     Type
  3845 ;;                  2    2[BANK0 ] unsigned int 
  3846 ;; Registers used:
  3847 ;;		wreg, status,2, status,0
  3848 ;; Tracked objects:
  3849 ;;		On entry : 0/0
  3850 ;;		On exit  : 0/0
  3851 ;;		Unchanged: 0/0
  3852 ;; Data sizes:     COMMON   BANK0   BANK1
  3853 ;;      Params:         0       2       0
  3854 ;;      Locals:         0       5       0
  3855 ;;      Temps:          0       2       0
  3856 ;;      Totals:         0       9       0
  3857 ;;Total ram usage:        9 bytes
  3858 ;; Hardware stack levels used: 1
  3859 ;; Hardware stack levels required when called: 1
  3860 ;; This function calls:
  3861 ;;		Nothing
  3862 ;; This function is called by:
  3863 ;;		___flmul
  3864 ;; This function uses a non-reentrant model
  3865 ;;
  3866                           
  3867                           
  3868                           ;psect for function __Umul8_16
  3869  0E5D                     __Umul8_16:
  3870                           
  3871                           ;incstack = 0
  3872                           ; Regs used in __Umul8_16: [wreg+status,2+status,0]
  3873                           ;__Umul8_16@multiplier stored from wreg
  3874  0E5D  1283               	bcf	3,5	;RP0=0, select bank0
  3875  0E5E  1303               	bcf	3,6	;RP1=0, select bank0
  3876  0E5F  00AA               	movwf	__Umul8_16@multiplier
  3877  0E60                     l1400:
  3878  0E60  01A6               	clrf	__Umul8_16@product
  3879  0E61  01A7               	clrf	__Umul8_16@product+1
  3880  0E62                     l1402:
  3881  0E62  0822               	movf	__Umul8_16@multiplicand,w
  3882  0E63  00A4               	movwf	??__Umul8_16
  3883  0E64  01A5               	clrf	??__Umul8_16+1
  3884  0E65  0824               	movf	??__Umul8_16,w
  3885  0E66  00A8               	movwf	__Umul8_16@word_mpld
  3886  0E67  0825               	movf	??__Umul8_16+1,w
  3887  0E68  00A9               	movwf	__Umul8_16@word_mpld+1
  3888  0E69                     l1404:
  3889  0E69  1C2A               	btfss	__Umul8_16@multiplier,0
  3890  0E6A  2E6C               	goto	u1881
  3891  0E6B  2E6D               	goto	u1880
  3892  0E6C                     u1881:
  3893  0E6C  2E73               	goto	l493
  3894  0E6D                     u1880:
  3895  0E6D                     l1406:
  3896  0E6D  0828               	movf	__Umul8_16@word_mpld,w
  3897  0E6E  07A6               	addwf	__Umul8_16@product,f
  3898  0E6F  1803               	skipnc
  3899  0E70  0AA7               	incf	__Umul8_16@product+1,f
  3900  0E71  0829               	movf	__Umul8_16@word_mpld+1,w
  3901  0E72  07A7               	addwf	__Umul8_16@product+1,f
  3902  0E73                     l493:
  3903  0E73  3001               	movlw	1
  3904  0E74                     u1895:
  3905  0E74  1003               	clrc
  3906  0E75  0DA8               	rlf	__Umul8_16@word_mpld,f
  3907  0E76  0DA9               	rlf	__Umul8_16@word_mpld+1,f
  3908  0E77  3EFF               	addlw	-1
  3909  0E78  1D03               	skipz
  3910  0E79  2E74               	goto	u1895
  3911  0E7A  1003               	clrc
  3912  0E7B  0CAA               	rrf	__Umul8_16@multiplier,f
  3913  0E7C                     l1408:
  3914  0E7C  082A               	movf	__Umul8_16@multiplier,w
  3915  0E7D  1D03               	btfss	3,2
  3916  0E7E  2E80               	goto	u1901
  3917  0E7F  2E81               	goto	u1900
  3918  0E80                     u1901:
  3919  0E80  2E69               	goto	l1404
  3920  0E81                     u1900:
  3921  0E81                     l1410:
  3922  0E81  0827               	movf	__Umul8_16@product+1,w
  3923  0E82  00A3               	movwf	?__Umul8_16+1
  3924  0E83  0826               	movf	__Umul8_16@product,w
  3925  0E84  00A2               	movwf	?__Umul8_16
  3926  0E85                     l495:
  3927  0E85  0008               	return
  3928  0E86                     __end_of__Umul8_16:
  3929                           
  3930                           	psect	text10
  3931  0E2F                     __ptext10:	
  3932 ;; *************** function _zero *****************
  3933 ;; Defined at:
  3934 ;;		line 15 in file "main.c"
  3935 ;; Parameters:    Size  Location     Type
  3936 ;;		None
  3937 ;; Auto vars:     Size  Location     Type
  3938 ;;		None
  3939 ;; Return value:  Size  Location     Type
  3940 ;;                  1    wreg      void 
  3941 ;; Registers used:
  3942 ;;		None
  3943 ;; Tracked objects:
  3944 ;;		On entry : 0/0
  3945 ;;		On exit  : 0/0
  3946 ;;		Unchanged: 0/0
  3947 ;; Data sizes:     COMMON   BANK0   BANK1
  3948 ;;      Params:         0       0       0
  3949 ;;      Locals:         0       0       0
  3950 ;;      Temps:          0       2       0
  3951 ;;      Totals:         0       2       0
  3952 ;;Total ram usage:        2 bytes
  3953 ;; Hardware stack levels used: 1
  3954 ;; This function calls:
  3955 ;;		Nothing
  3956 ;; This function is called by:
  3957 ;;		Interrupt level 1
  3958 ;; This function uses a non-reentrant model
  3959 ;;
  3960                           
  3961                           
  3962                           ;psect for function _zero
  3963  0E2F                     _zero:
  3964  0E2F                     i1l1658:
  3965                           
  3966                           ;main.c: 16:     if(CCP1IF == 1){
  3967  0E2F  1D0C               	btfss	12,2	;volatile
  3968  0E30  2E32               	goto	u252_21
  3969  0E31  2E33               	goto	u252_20
  3970  0E32                     u252_21:
  3971  0E32  2E34               	goto	i1l22
  3972  0E33                     u252_20:
  3973  0E33                     i1l1660:
  3974                           
  3975                           ;main.c: 18:         CCP1IF = 0;
  3976  0E33  110C               	bcf	12,2	;volatile
  3977  0E34                     i1l22:
  3978  0E34  0821               	movf	??_zero+1,w
  3979  0E35  008A               	movwf	10
  3980  0E36  0E20               	swapf	??_zero,w
  3981  0E37  0083               	movwf	3
  3982  0E38  0EFE               	swapf	btemp,f
  3983  0E39  0E7E               	swapf	btemp,w
  3984  0E3A  0009               	retfie
  3985  0E3B                     __end_of_zero:
  3986  007E                     btemp	set	126	;btemp
  3987  007E                     wtemp0	set	126
  3988                           
  3989                           	psect	intentry
  3990  0004                     __pintentry:	
  3991                           ;incstack = 0
  3992                           ; Regs used in _zero: []
  3993                           
  3994  0004                     interrupt_function:
  3995  007E                     saved_w	set	btemp
  3996  0004  00FE               	movwf	btemp
  3997  0005  0E03               	swapf	3,w
  3998  0006  1283               	bcf	3,5	;RP0=0, select bank0
  3999  0007  1303               	bcf	3,6	;RP1=0, select bank0
  4000  0008  00A0               	movwf	??_zero
  4001  0009  080A               	movf	10,w
  4002  000A  00A1               	movwf	??_zero+1
  4003  000B  158A  2E2F         	ljmp	_zero

Data Sizes:
    Strings     4
    Constant    40
    Data        0
    BSS         0
    Persistent  0
    Stack       0

Auto Spaces:
    Space          Size  Autos    Used
    COMMON            0      0       0
    BANK0            94     63      63
    BANK1            94      0       0

Pointer List with Targets:

    printf@f	PTR const unsigned char  size(1) Largest target is 4
		 -> STR_1(CODE[4]), 

    printf@ap	PTR void [1] size(1) Largest target is 2
		 -> ?_printf(BANK0[2]), 


Critical Paths under _main in COMMON

    None.

Critical Paths under _zero in COMMON

    None.

Critical Paths under _main in BANK0

    _main->_printf
    _printf->___llmod
    ___llmod->___lldiv
    ___flsub->___fladd
    ___flmul->__Umul8_16

Critical Paths under _zero in BANK0

    None.

Critical Paths under _main in BANK1

    None.

Critical Paths under _zero in BANK1

    None.

Call Graph Tables:

 ---------------------------------------------------------------------------------
 (Depth) Function   	        Calls       Base Space   Used Autos Params    Refs
 ---------------------------------------------------------------------------------
 (0) _main                                                18    18      0    7133
                                             45 BANK0     18    18      0
                            ___flmul
                            ___flsub
                           ___xxtofl
                             _printf
 ---------------------------------------------------------------------------------
 (1) _printf                                              27    23      4    1091
                                             26 BANK0     19    15      4
                            ___lldiv
                            ___llmod
                              _putch
 ---------------------------------------------------------------------------------
 (2) _putch                                                1     1      0       0
 ---------------------------------------------------------------------------------
 (2) ___llmod                                             10     2      8     311
                                             16 BANK0     10     2      8
                            ___lldiv (ARG)
 ---------------------------------------------------------------------------------
 (2) ___lldiv                                             14     6      8     314
                                              2 BANK0     14     6      8
 ---------------------------------------------------------------------------------
 (1) ___xxtofl                                            14    10      4     474
                                              2 BANK0     14    10      4
 ---------------------------------------------------------------------------------
 (1) ___flsub                                              8     0      8    2333
                                             22 BANK0      8     0      8
                            ___fladd
                           ___xxtofl (ARG)
 ---------------------------------------------------------------------------------
 (2) ___fladd                                             20    12      8    2136
                                              2 BANK0     20    12      8
 ---------------------------------------------------------------------------------
 (1) ___flmul                                             26    18      8    3025
                                             11 BANK0     26    18      8
                          __Umul8_16
 ---------------------------------------------------------------------------------
 (2) __Umul8_16                                            9     7      2     799
                                              2 BANK0      9     7      2
 ---------------------------------------------------------------------------------
 Estimated maximum stack depth 2
 ---------------------------------------------------------------------------------
 (Depth) Function   	        Calls       Base Space   Used Autos Params    Refs
 ---------------------------------------------------------------------------------
 (3) _zero                                                 2     2      0       0
                                              0 BANK0      2     2      0
 ---------------------------------------------------------------------------------
 Estimated maximum stack depth 3
 ---------------------------------------------------------------------------------

 Call Graph Graphs:

 _main (ROOT)
   ___flmul
     __Umul8_16
   ___flsub
     ___fladd
     ___xxtofl (ARG)
   ___xxtofl
   _printf
     ___lldiv
     ___llmod
       ___lldiv (ARG)
     _putch

 _zero (ROOT)

 Address spaces:
Name               Size   Autos  Total    Cost      Usage
BITCOMMON            0      0       0       0        0.0%
NULL                 0      0       0       0        0.0%
CODE                 0      0       0       0        0.0%
BITSFR0              0      0       0       1        0.0%
SFR0                 0      0       0       1        0.0%
COMMON               0      0       0       1        0.0%
BITSFR1              0      0       0       2        0.0%
SFR1                 0      0       0       2        0.0%
STACK                0      0       0       2        0.0%
ABS                  0      0       0       3        0.0%
BITBANK0            5E      0       0       4        0.0%
BITSFR3              0      0       0       4        0.0%
SFR3                 0      0       0       4        0.0%
BANK0               5E     3F      3F       5       67.0%
BITSFR2              0      0       0       5        0.0%
SFR2                 0      0       0       5        0.0%
BITBANK1            5E      0       0       6        0.0%
BANK1               5E      0       0       7        0.0%
DATA                 0      0       0       8        0.0%


Microchip Technology PIC Macro Assembler V2.32 build 20210201212658 
Symbol Table                                                                                   Wed May 12 11:56:08 2021

                      pc 0002                       l30 074B                       l33 07F6  
                     l81 0714                       l65 05FE                       l68 061D  
                     fsr 0004      __Umul8_16@word_mpld 0028                      l121 0F43  
                    l403 055A                      l307 0EDB                      l420 05DC  
                    l412 05BA                      l421 05E8                      l424 0E5C  
                    l520 0FFF                      l409 057C                      l531 0FC9  
                    l532 0FD5                      l524 0FAD                      l382 046B  
                    l518 0F68                      l391 05E8                      l480 02CC  
                    l384 0442                      l536 07F8                      l474 0360  
                    l378 03C4                      l493 0E73                      l486 0354  
                    l495 0E85                      l399 0536                      _RC2 003A  
                    fsr0 0004                      indf 0000             ___flmul@aexp 003D  
           ___flmul@bexp 003E             ___flmul@sign 0038             ___flmul@temp 0043  
           ___flmul@prod 003F                     l1200 0ECD                     l1210 036E  
                   l1202 0ED3                     l1300 045F                     l1220 0385  
                   l1212 0372                     l1310 047D                     l1302 0463  
                   l1230 039B                     l1222 0386                     l1214 0373  
                   l1206 0361                     l1400 0E60                     l1320 04A7  
                   l1312 0494                     l1304 046F                     l1240 03AC  
                   l1232 039C                     l1216 0378                     l1224 0388  
                   l1208 0368                     l1410 0E81                     l1402 0E62  
                   l1330 04D0                     l1322 04AB                     l1314 0498  
                   l1306 0474                     l1250 03CA                     l1242 03B1  
                   l1234 03A2                     l1226 0390                     l1218 037D  
                   l1170 0F02                     l1162 0EDC                     l1404 0E69  
                   l1500 0050                     l1340 053E                     l1332 050E  
                   l1324 04AC                     l1316 049C                     l1260 03DE  
                   l1252 03CE                     l1244 03B9                     l1236 03A6  
                   l1228 0395                     l1180 0F35                     l1172 0F0B  
                   l1164 0EEE                     l1420 05FC                     l1406 0E6D  
                   l1510 006C                     l1502 0055                     l1350 0559  
                   l1342 0543                     l1334 0514                     l1326 04B5  
                   l1318 04A5                     l1270 03F2                     l1262 03E2  
                   l1254 03D2                     l1246 03BA                     l1238 03A7  
                   l1174 0F1D                     l1166 0EF1                     l1182 0F3B  
                   l1190 0E93                     l1430 0634                     l1414 05EC  
                   l1408 0E7C                     l1600 0338                     l1520 008D  
                   l1512 0071                     l1504 005A                     l1352 055E  
                   l1360 056A                     l1336 0519                     l1328 04BA  
                   l1280 0406                     l1272 03F6                     l1264 03E6  
                   l1256 03D6                     l1248 03BC                     l1176 0F2B  
                   l1168 0EFE                     l1192 0EA0                     l1440 065C  
                   l1432 0645                     l1424 05FF                     l1416 05F1  
                   l1610 0358                     l1602 033A                     l1530 0117  
                   l1522 009A                     l1514 0076                     l1506 0062  
                   l1354 0561                     l1346 054C                     l1338 0528  
                   l1362 056E                     l1290 0446                     l1282 040A  
                   l1274 03FA                     l1266 03EA                     l1258 03DA  
                   l1178 0F2C                     l1194 0EA4                     l1186 0E86  
                   l1450 0697                     l1434 0649                     l1426 0621  
                   l1418 05F7                     l1604 0348                     l1540 0175  
                   l1532 0133                     l1524 00B5                     l1508 0064  
                   l1380 05B6                     l1372 0581                     l1364 056F  
                   l1356 0563                     l1348 0555                     l1292 044F  
                   l1276 03FE                     l1268 03EE                     l1284 040E  
                   l1620 0F60                     l1196 0EB6                     l1188 0E90  
                   l1460 06F2                     l1452 069D                     l1444 065E  
                   l1436 064D                     l1428 062F                     l1606 034C  
                   l1550 01FF                     l1542 0192                     l1534 013C  
                   l1526 00D1                     l1518 007F                     l1390 05D2  
                   l1382 05BF                     l1374 0586                     l1366 0573  
                   l1358 0568                     l1294 0451                     l1286 040F  
                   l1278 0402                     l1470 0E3F                     l1630 0F8B  
                   l1622 0F70                     l1614 0F47                     l1198 0EC4  
                   l1454 06A1                     l1438 0651                     l1462 0702  
                   l1608 034D                     l1560 028F                     l1552 022A  
                   l1544 01A9                     l1536 014A                     l1528 00FB  
                   l1480 0023                     l1392 05D6                     l1384 05C4  
                   l1376 0594                     l1368 0579                     l1296 0455  
                   l1288 0426                     l1640 0FBF                     l1632 0F92  
                   l1616 0F4C                     l1456 06AB                     l1448 068D  
                   l1562 0298                     l1570 02AC                     l1554 0250  
                   l1546 01C6                     l1538 0167                     l1490 0038  
                   l1482 0024                     l1474 0012                     l1394 05D8  
                   l1386 05CC                     l1378 0598                     l1298 0456  
                   l1650 0FF2                     l1642 0FC3                     l1634 0F96  
                   l1626 0F79                     l1618 0F50                     l1458 06EE  
                   l1722 060F                     l1572 02B0                     l1564 029C  
                   l1556 0278                     l1548 01F1                     l1492 0040  
                   l1484 0029                     l1476 0019                     l1396 05E3  
                   l1388 05D1                     l1468 0E3B                     l1652 0FF6  
                   l1644 0FCD                     l1636 0FA4                     l1628 0F7E  
                   l1590 0301                     l1582 02D1                     l1574 02B1  
                   l1566 029D                     l1558 0281                     l1494 0045  
                   l1486 002E                     l1478 001F                     l1398 05E7  
                   l1654 0FF7                     l1646 0FD7                     l1638 0FB4  
                   l1670 072E                     l1662 0715                     l1584 02D6  
                   l1592 0307                     l1576 02B5                     l1568 02A6  
                   l1496 004B                     l1488 0036                     l1648 0FED  
                   l1680 0747                     l1672 0731                     l1664 071B  
                   l1594 0314                     l1586 02E4                     l1578 02C9  
                   l1498 004F                     l1682 0751                     l1674 0735  
                   l1666 071D                     l1596 031F                     l1588 02E8  
                   l1684 0758                     l1676 073B                     l1668 072B  
                   l1598 032E                     l1686 07EA                     l1678 0740  
                   STR_1 082E                     u2000 0714                     u2001 0713  
                   u2010 0023                     u2011 0022                     u2020 0029  
                   u2101 00DF                     u2021 0028                     u2102 00E6  
                   u2030 002E                     u1310 0F02                     u2111 0109  
                   u2103 00ED                     u2031 002D                     u1311 0F01  
                   u2200 0236                     u2112 0110                     u2040 004F  
                   u2121 0125                     u2113 0117                     u2041 004E  
                   u1305 0EF3                     u2122 012C                     u2050 0055  
                   u1330 0F1D                     u1410 0ED3                     u2211 0242  
                   u2123 0133                     u2051 0054                     u1331 0F1C  
                   u1411 0ED2                     u2300 02C9                     u2220 025E  
                   u2212 0249                     u2060 005A                     u1500 03CE  
                   u1420 0372                     u2301 02C8                     u2213 0250  
                   u2205 0231                     u2141 0159                     u2061 0059  
                   u1501 03CD                     u1421 0371                     u1325 0F04  
                   u1405 0EC5                     u2310 02D0                     u2142 0160  
                   u2070 0071                     u1510 0426                     u1430 0378  
                   u1350 0F3B                     u2311 02CF                     u2231 026A  
                   u2151 0184                     u2143 0167                     u2135 0135  
                   u2071 0070                     u1511 0425                     u1431 0377  
                   u1351 0F3A                     u1335 0F19                     u2320 02D6  
                   u2232 0271                     u2152 018B                     u2080 0076  
                   u1520 0431                     u1440 037D                     u2400 0F70  
                   u1360 0E90                     u2321 02D5                     u2233 0278  
                   u2225 0259                     u2153 0192                     u2081 0075  
                   u1601 0486                     u1521 042F                     u1441 037C  
                   u2401 0F6F                     u1345 0F2D                     u1361 0E8F  
                   u2330 02E8                     u1610 0498                     u1602 048D  
                   u1530 0432                     u1450 039B                     u1290 0EEE  
                   u2331 02E7                     u2171 01B8                     u2091 00C3  
                   u1611 0497                     u1603 0494                     u1515 0422  
                   u1451 039A                     u1291 0EED                     u2340 02F7  
                   u2260 029C                     u2172 01BF                     u2092 00CA  
                   u1700 0543                     u1620 049C                     u1540 0446  
                   u1460 03A6                     u2500 0FF2                     u2420 0F91  
                   u1380 0EA4                     u2261 029B                     u2245 027A  
                   u2181 01E3                     u2173 01C6                     u2165 0194  
                   u2093 00D1                     u1701 0542                     u1621 049B  
                   u1541 0445                     u1461 03A5                     u2501 0FF1  
                   u2421 0F90                     u1381 0EA3                     u2350 0314  
                   u2182 01EA                     u1630 04AB                     u1550 0455  
                   u1470 03AC                     u2510 0FF6                     u1390 0EB6  
                   u2351 0313                     u2255 0291                     u2191 020E  
                   u2183 01F1                     u1631 04AA                     u1551 0454  
                   u1471 03AB                     u2511 0FF5                     u2415 0F83  
                   u1391 0EB5                     u1375 0E95                     u2360 032E  
                   u2280 02B0                     u2192 0215                     u1800 0598  
                   u1720 0559                     u1480 03B1                     u2440 0FB3  
                   u2361 032D                     u2345 02F2                     u2281 02AF  
                   u2193 021C                     u1801 0597                     u1721 0558  
                   u1481 03B0                     u2441 0FB2                     u2370 034C  
                   u2290 02B5                     u1810 05A7                     u1730 055E  
                   u1650 04D0                     u1570 046B                     u1490 03CA  
                   u2530 0735                     u2371 034B                     u2355 0310  
                   u2291 02B4                     u2275 029F                     u1731 055D  
                   u1715 054E                     u1651 04CF                     u1571 046A  
                   u1491 03C9                     u2435 0FA5                     u1395 0EB2  
                   u2531 0734                     u1900 0E81                     u1820 05B6  
                   u1740 0568                     u1580 046F                     u2460 0FC3  
                   u2380 0F4C                     u2540 073B                     u1901 0E80  
                   u2365 032A                     u1821 05B5                     u1741 0567  
                   u1661 04E7                     u1653 04CC                     u1645 04AE  
                   u1581 046E                     u1565 0458                     u2461 0FC2  
                   u2381 0F4B                     u2541 073A                     u1830 05BF  
                   u1750 056E                     u1670 04FB                     u1662 04E8  
                   u1590 0474                     u2470 0FC9                     u2390 0F50  
                   u1910 05F7                     u2550 0747                     u1831 05BE  
                   u1815 05A2                     u1751 056D                     u1671 04FC  
                   u1663 04ED                     u1591 0473                     u2471 0FC8  
                   u2455 0FB8                     u2391 0F4F                     u1911 05F6  
                   u2551 0746                     u1840 05C4                     u1760 0573  
                   u1680 0519                     u1672 0501                     u1664 04EE  
                   u2480 0FCD                     u1920 0621                     u2560 0758  
                   u1841 05C3                     u1761 0572                     u1681 0518  
                   u1673 0502                     u1665 04F3                     u2481 0FCC  
                   u1921 0620                     u2561 0757              main@counter 005D  
                   u1850 05D1                     u1770 0579                     u1690 053E  
                   u1666 04F4                     u2490 0FE2                     u1930 064D  
                   u1851 05D0                     u1771 0578                     u1691 053D  
                   u1931 064C                     u1860 05D6                     u1780 0580  
                   u1861 05D5                     u1781 057F                     u1870 05E7  
                   u1790 0586                     u1950 068C                     u1871 05E6  
                   u1791 0585                     u2495 0FDD                     u1951 068B  
                   u1880 0E6D                     u1960 0697                     u1881 0E6C  
                   u1961 0696                     u1945 0661                     u1970 069D  
                   u1971 069C                     u1955 0688                     i1l22 0E34  
                   u1990 0702                     u1895 0E74                     u1991 0701  
                   u1985 06B6                     _main 0715                     btemp 007E  
                   _zero 0E2F                     start 000D              main@roznica 0059  
        __end_of___fladd 05E9                    ?_main 0020                    _CCPR1 0015  
        __end_of___flmul 0361          __end_of___flsub 0E5D          __end_of___lldiv 0F44  
                  ?_zero 0020          __end_of___llmod 0EDC                    _TRISC 0087  
        __end_of_dpowers 082E                    _putch 07F8                    pclath 000A  
                  status 0003                    wtemp0 007E          __initialization 000F  
           __end_of_main 07F8             __end_of_zero 0E3B                   ??_main 0000  
                 ??_zero 0020                   _CCP1IF 0062         ___llmod@dividend 0034  
                 ?_putch 0020                   i1l1660 0E33                   i1l1658 0E2F  
                 u252_20 0E33                   u252_21 0E32                   _TMR1CS 0081  
                 _TMR1ON 0080         __end_of___xxtofl 1000                ??___fladd 002A  
              ??___flmul 0033                ??___flsub 0000                ??___lldiv 002A  
              ??___llmod 0038                   _printf 05E9       __size_of__Umul8_16 0029  
                 saved_w 007E                   putch@c 0020             ___xxtofl@arg 002C  
           ___xxtofl@exp 002B             ___xxtofl@val 0022  __end_of__initialization 000F  
         __pcstackCOMMON 0000            __end_of_putch 07F9                  ??_putch 0000  
      __end_of__Umul8_16 0E86               __pmaintext 0715               __pintentry 0004  
                _CCP1CON 0017                  ?_printf 003A                ?___xxtofl 0022  
             __stringtab 0800                  ___fladd 0361                  ___flmul 0012  
                ___flsub 0E3B                  ___lldiv 0EDC                  ___llmod 0E86  
                __ptext1 05E9                  __ptext2 07F8                  __ptext3 0E86  
                __ptext4 0EDC                  __ptext5 0F44                  __ptext6 0E3B  
                __ptext7 0361                  __ptext8 0012                  __ptext9 0E5D  
        __size_of_printf 012C                  _dpowers 0806               ??___xxtofl 0026  
   end_of_initialization 000F          ___lldiv@divisor 0022          ___lldiv@counter 002F  
                printf@c 004C                  printf@f 0045              ___fladd@grs 0035  
          ___xxtofl@sign 002A               main@Obrot1 0055               main@Obrot2 0057  
            ___flmul@grs 0039               main@przysp 0051           __end_of_printf 0715  
    start_initialization 000F          ___llmod@divisor 0030          ___llmod@counter 0039  
              __Umul8_16 0E5D                 ??_printf 003E                ___fladd@a 0026  
              ___fladd@b 0022                ___flmul@a 002F                ___flmul@b 002B  
              ___flsub@a 0036                ___flsub@b 003A                ___latbits 0001  
          __pcstackBANK0 0020        __size_of___xxtofl 00BC                 ?___fladd 0022  
               ?___flmul 002B                 ?___flsub 0036                 ?___lldiv 0022  
               ?___llmod 0030               ?__Umul8_16 0022                __pstrings 0800  
         __size_of_putch 0001        interrupt_function 0004              __stringbase 0805  
             printf@flag 0047               printf@prec 0043              ??__Umul8_16 0024  
       __size_of___fladd 0288         __size_of___flmul 034F         __size_of___flsub 0022  
       __size_of___lldiv 0068         __size_of___llmod 0056       __end_of__stringtab 0806  
               ___xxtofl 0F44                 _main$504 004D                 __ptext10 0E2F  
          __size_of_main 00E3            __size_of_zero 000C                printf@val 0048  
               intlevel1 0000         ___lldiv@dividend 0026                stringcode 0800  
               printf@ap 0046   __Umul8_16@multiplicand 0022         ___lldiv@quotient 002B  
               stringdir 0800                 stringtab 0800            ___fladd@signs 0032  
           ___fladd@aexp 0033             ___fladd@bexp 0034     __Umul8_16@multiplier 002A  
      __Umul8_16@product 0026  
